ccopy_reg
_reconstructor
p0
(cnltk.tag.sequential
AffixTagger
p1
c__builtin__
object
p2
Ntp3
Rp4
(dp5
S'_taggers'
p6
(lp7
g4
ag0
(cnltk.tag.sequential
DefaultTagger
p8
g2
Ntp9
Rp10
(dp11
g6
(lp12
g10
asS'_tag'
p13
S'NN'
p14
sbasS'_min_word_length'
p15
I5
sS'_context_to_tag'
p16
(dp17
S'AGE'
p18
S'NNP'
p19
sS'all'
p20
S'JJ'
p21
sS'aud'
p22
S'NN'
p23
sS'auf'
p24
S'NNP'
p25
sS'ali'
p26
S'NNP'
p27
sS'aum'
p28
S'NNP'
p29
sS'xty'
p30
S'CD'
p31
sS'345'
p32
S'CD'
p33
sS'346'
p34
S'CD'
p35
sS'aux'
p36
S'NNP'
p37
sS'29s'
p38
S'NNS'
p39
sS'xth'
p40
S'JJ'
p41
sS'ale'
p42
S'NNP'
p43
sS'D.s'
p44
S'NNS'
p45
sS'960'
p46
S'CD'
p47
sS'upo'
p48
S'NNP'
p49
sS'MAS'
p50
S'NNP'
p51
sS'upy'
p52
S'VB'
p53
sS'upt'
p54
S'JJ'
p55
sS'292'
p56
S'CD'
p57
sS'ups'
p58
S'NNS'
p59
sS'MAN'
p60
S'NNP'
p61
sS'pin'
p62
S'NN'
p63
sS'272'
p64
S'CD'
p65
sS'273'
p66
S'CD'
p67
sS'nen'
p68
S'NNP'
p69
sS'nel'
p70
S'NN'
p71
sS'ned'
p72
S'VBD'
p73
sS'kus'
p74
S'NNP'
p75
sS'kur'
p76
S'NNP'
p77
sS'nea'
p78
S'NNP'
p79
sS'gna'
p80
S'NNP'
p81
sS'nez'
p82
S'NNP'
p83
sS'nex'
p84
S'NNP'
p85
sS'ney'
p86
S'NN'
p87
sS'new'
p88
S'VB'
p89
sS'net'
p90
S'NN'
p91
sS'ner'
p92
S'NNP'
p93
sS'nes'
p94
S'NNS'
p95
sS'mee'
p96
S'NNP'
p97
sS'med'
p98
S'VBN'
p99
sS'meg'
p100
S'NNP'
p101
sS'mec'
p102
S'NNP'
p103
sS'mel'
p104
S'NNP'
p105
sS'men'
p106
S'NNS'
p107
sS'GRY'
p108
S'NNP'
p109
sS'met'
p110
S'VB'
p111
sS'108'
p112
S'CD'
p113
sS'mes'
p114
S'NNS'
p115
sS'mer'
p116
S'NN'
p117
sS'100'
p118
S'CD'
p119
sS'ech'
p120
S'NN'
p121
sS'mex'
p122
S'NNP'
p123
sS'105'
p124
S'CD'
p125
sS'dry'
p126
S'NN'
p127
sS'aky'
p128
S'JJ'
p129
sS'glo'
p130
S'NNP'
p131
sS'aks'
p132
S'NNS'
p133
sS'gle'
p134
S'JJ'
p135
sS'gly'
p136
S'RB'
p137
sS'aki'
p138
S'NNP'
p139
sS'ENS'
p140
S'NNS'
p141
sS'dra'
p142
S'NNP'
p143
sS'wdy'
p144
S'UH'
p145
sS'aka'
p146
S'NNP'
p147
sS'NOW'
p148
S'NNP'
p149
sS'dre'
p150
S'NNP'
p151
sS'ake'
p152
S'NN'
p153
sS'esk'
p154
S'NNP'
p155
sS'CTS'
p156
S'NNS'
p157
sS'bro'
p158
S'NNP'
p159
sS'bri'
p160
S'NNP'
p161
sS'lma'
p162
S'NNP'
p163
sS'056'
p164
S'CD'
p165
sS'050'
p166
S'CD'
p167
sS'bra'
p168
S'NNP'
p169
sS'aus'
p170
S'NNP'
p171
sS'4Ti'
p172
S'NNP'
p173
sS'dny'
p174
S'NNP'
p175
sS'von'
p176
S'NNP'
p177
sS'nka'
p178
S'NNP'
p179
sS'nko'
p180
S'NNP'
p181
sS'nks'
p182
S'NNS'
p183
sS'nky'
p184
S'JJ'
p185
sS'ert'
p186
S'NNP'
p187
sS'erp'
p188
S'NNP'
p189
sS'-up'
p190
S'JJ'
p191
sS'ers'
p192
S'NNS'
p193
sS'ery'
p194
S'NN'
p195
sS'erd'
p196
S'NNP'
p197
sS'ere'
p198
S'EX'
p199
sS'erg'
p200
S'NNP'
p201
sS'tna'
p202
S'NNP'
p203
sS'era'
p204
S'NNP'
p205
sS'erb'
p206
S'JJ'
p207
sS'erm'
p208
S'JJ'
p209
sS'ern'
p210
S'NNP'
p211
sS'ero'
p212
S'NNP'
p213
sS'erk'
p214
S'NN'
p215
sS'la.'
p216
S'NNP'
p217
sS'uar'
p218
S'NNP'
p219
sS'uat'
p220
S'JJ'
p221
sS'ual'
p222
S'JJ'
p223
sS'uan'
p224
S'JJ'
p225
sS'2.2'
p226
S'CD'
p227
sS'ena'
p228
S'NN'
p229
sS'U.S'
p230
S'NNP'
p231
sS'end'
p232
S'NN'
p233
sS'ene'
p234
S'NN'
p235
sS'hon'
p236
S'NNP'
p237
sS'eni'
p238
S'NNP'
p239
sS'hom'
p240
S'NNP'
p241
sS'ONG'
p242
S'IN'
p243
sS'enn'
p244
S'NNP'
p245
sS'hoi'
p246
S'NNP'
p247
sS'how'
p248
S'RB'
p249
sS'ens'
p250
S'NNS'
p251
sS'ent'
p252
S'NN'
p253
sS'ONS'
p254
S'NNS'
p255
sS'enz'
p256
S'NNP'
p257
sS'lan'
p258
S'NNP'
p259
sS'lai'
p260
S'NNP'
p261
sS'lak'
p262
S'NNP'
p263
sS'lad'
p264
S'JJ'
p265
sS'lab'
p266
S'NNP'
p267
sS'lac'
p268
S'NNP'
p269
sS'ova'
p270
S'NNP'
p271
sS'lax'
p272
S'VB'
p273
sS'lay'
p274
S'NN'
p275
sS'ove'
p276
S'IN'
p277
sS'lav'
p278
S'NNP'
p279
sS'lar'
p280
S'JJ'
p281
sS'las'
p282
S'NNP'
p283
sS'685'
p284
S'CD'
p285
sS'684'
p286
S'CD'
p287
sS'680'
p288
S'CD'
p289
sS'zed'
p290
S'VBN'
p291
sS'zen'
p292
S'NN'
p293
sS'zem'
p294
S'NNP'
p295
sS'zer'
p296
S'NNP'
p297
sS'6.6'
p298
S'CD'
p299
sS'6.5'
p300
S'CD'
p301
sS'6.4'
p302
S'CD'
p303
sS'6.3'
p304
S'CD'
p305
sS'6.2'
p306
S'CD'
p307
sS'6.1'
p308
S'CD'
p309
sS'zey'
p310
S'NNP'
p311
sS'6.9'
p312
S'CD'
p313
sS'6.8'
p314
S'CD'
p315
sS'ima'
p316
S'NNP'
p317
sS'uor'
p318
S'NN'
p319
sS'imb'
p320
S'NN'
p321
sS'ime'
p322
S'JJ'
p323
sS'fit'
p324
S'NN'
p325
sS'cle'
p326
S'NN'
p327
sS'SAA'
p328
S'NNP'
p329
sS'fic'
p330
S'NNP'
p331
sS'ims'
p332
S'NNS'
p333
sS'fia'
p334
S'NNP'
p335
sS'cly'
p336
S'RB'
p337
sS'400'
p338
S'CD'
p339
sS'fin'
p340
S'NNP'
p341
sS'ong'
p342
S'IN'
p343
sS'.M.'
p344
S'NNP'
p345
sS'ZIE'
p346
S'NNP'
p347
sS'ISH'
p348
S'NNS'
p349
sS'375'
p350
S'CD'
p351
sS'390'
p352
S'CD'
p353
sS'395'
p354
S'CD'
p355
sS'mbo'
p356
S'JJ'
p357
sS'gon'
p358
S'NNP'
p359
sS'sms'
p360
S'NNS'
p361
sS'aji'
p362
S'NNP'
p363
sS'got'
p364
S'NNP'
p365
sS'aje'
p366
S'NNP'
p367
sS'gos'
p368
S'NNS'
p369
sS'nty'
p370
S'NN'
p371
sS'ntz'
p372
S'NNP'
p373
sS'nts'
p374
S'NNS'
p375
sS'nth'
p376
S'NN'
p377
sS'nto'
p378
S'NNP'
p379
sS'nta'
p380
S'NNP'
p381
sS'nte'
p382
S'NNP'
p383
sS'294'
p384
S'CD'
p385
sS'isy'
p386
S'NNP'
p387
sS'ate'
p388
S'NN'
p389
sS'ata'
p390
S'NNP'
p391
sS'iss'
p392
S'JJ'
p393
sS'ato'
p394
S'NNP'
p395
sS'ath'
p396
S'NN'
p397
sS'ati'
p398
S'NNP'
p399
sS'isk'
p400
S'JJ'
p401
sS'att'
p402
S'NNP'
p403
sS'ish'
p404
S'JJ'
p405
sS'iso'
p406
S'NNP'
p407
sS'ats'
p408
S'NNS'
p409
sS'ism'
p410
S'NN'
p411
sS'atz'
p412
S'NNP'
p413
sS'ise'
p414
S'NN'
p415
sS'178'
p416
S'NNP'
p417
sS'174'
p418
S'CD'
p419
sS'kia'
p420
S'NNP'
p421
sS'170'
p422
S'CD'
p423
sS'xic'
p424
S'JJ'
p425
sS'tor'
p426
S'NN'
p427
sS'tos'
p428
S'NNS'
p429
sS'top'
p430
S'NN'
p431
sS'tow'
p432
S'NNP'
p433
sS'ECT'
p434
S'VBP'
p435
sS'ton'
p436
S'NNP'
p437
sS'nit'
p438
S'JJ'
p439
sS'tol'
p440
S'NNP'
p441
sS'toe'
p442
S'VB'
p443
sS'060'
p444
S'CD'
p445
sS'065'
p446
S'CD'
p447
sS'064'
p448
S'CD'
p449
sS'ted'
p450
S'VBN'
p451
sS'tee'
p452
S'NN'
p453
sS'YAC'
p454
S'NNP'
p455
sS'TUS'
p456
S'NNP'
p457
sS'nza'
p458
S'NNP'
p459
sS'nzi'
p460
S'NNP'
p461
sS'nzo'
p462
S'NNP'
p463
sS'VMS'
p464
S'NNP'
p465
sS'.L.'
p466
S'NNP'
p467
sS'rad'
p468
S'NNP'
p469
sS'rae'
p470
S'NNP'
p471
sS'uds'
p472
S'NNS'
p473
sS'ran'
p474
S'NN'
p475
sS'ral'
p476
S'JJ'
p477
sS'ram'
p478
S'NN'
p479
sS'rak'
p480
S'NNP'
p481
sS'rah'
p482
S'NNP'
p483
sS'rai'
p484
S'NNP'
p485
sS'raw'
p486
S'VB'
p487
sS'rat'
p488
S'NNP'
p489
sS'.28'
p490
S'CD'
p491
sS'ras'
p492
S'NNPS'
p493
sS'rap'
p494
S'NN'
p495
sS'.23'
p496
S'CD'
p497
sS'.22'
p498
S'CD'
p499
sS'.20'
p500
S'CD'
p501
sS'raz'
p502
S'NNP'
p503
sS'.25'
p504
S'CD'
p505
sS'ray'
p506
S'NNP'
p507
sS'Syn'
p508
S'NNP'
p509
sS'Sys'
p510
S'NNP'
p511
sS'OIS'
p512
S'NNP'
p513
sS'ype'
p514
S'JJ'
p515
sS'tyn'
p516
S'NNP'
p517
sS'-be'
p518
S'JJ'
p519
sS'-by'
p520
S'JJ'
p521
sS'epe'
p522
S'NNP'
p523
sS'don'
p524
S'NNP'
p525
sS'dom'
p526
S'NNP'
p527
sS'lps'
p528
S'VBZ'
p529
sS'dog'
p530
S'NN'
p531
sS'doz'
p532
S'NNP'
p533
sS'dox'
p534
S'JJ'
p535
sS'lph'
p536
S'NNP'
p537
sS'dor'
p538
S'NNP'
p539
sS'dos'
p540
S'NNS'
p541
sS'lpa'
p542
S'NNP'
p543
sS'2.6'
p544
S'CD'
p545
sS'7.2'
p546
S'CD'
p547
sS'7.3'
p548
S'CD'
p549
sS'7.6'
p550
S'CD'
p551
sS'7.7'
p552
S'CD'
p553
sS'7.4'
p554
S'CD'
p555
sS'7.5'
p556
S'CD'
p557
sS'7.8'
p558
S'CD'
p559
sS'7.9'
p560
S'CD'
p561
sS'och'
p562
S'NNP'
p563
sS'ock'
p564
S'NN'
p565
sS'oco'
p566
S'NNP'
p567
sS'hrs'
p568
S'NNP'
p569
sS'AWK'
p570
S'NNP'
p571
sS'ldi'
p572
S'NNP'
p573
sS'eme'
p574
S'NNP'
p575
sS'bar'
p576
S'NNP'
p577
sS'bas'
p578
S'NNP'
p579
sS'emn'
p580
S'VB'
p581
sS'bay'
p582
S'NNP'
p583
sS'bad'
p584
S'NNP'
p585
sS'ems'
p586
S'NNS'
p587
sS'ban'
p588
S'JJ'
p589
sS'bal'
p590
S'JJ'
p591
sS'emy'
p592
S'NNP'
p593
sS'efy'
p594
S'VB'
p595
sS'nus'
p596
S'NN'
p597
sS'num'
p598
S'NN'
p599
sS'nue'
p600
S'NN'
p601
sS'nuc'
p602
S'NNP'
p603
sS'mut'
p604
S'NNP'
p605
sS'irs'
p606
S'NNS'
p607
sS'k.a'
p608
S'JJ'
p609
sS'irm'
p610
S'VB'
p611
sS'iro'
p612
S'NNP'
p613
sS'mum'
p614
S'JJ'
p615
sS'ira'
p616
S'NNP'
p617
sS'ird'
p618
S'JJ'
p619
sS'ire'
p620
S'VB'
p621
sS'360'
p622
S'CD'
p623
sS'omb'
p624
S'NNP'
p625
sS'oma'
p626
S'NNP'
p627
sS'ome'
p628
S'NN'
p629
sS'oms'
p630
S'NNS'
p631
sS'385'
p632
S'CD'
p633
sS'wth'
p634
S'NN'
p635
sS'cus'
p636
S'NN'
p637
sS'omy'
p638
S'NN'
p639
sS'elo'
p640
S'NNP'
p641
sS'cop'
p642
S'NNP'
p643
sS'ild'
p644
S'VB'
p645
sS'cor'
p646
S'NNP'
p647
sS'unt'
p648
S'NN'
p649
sS'unu'
p650
S'NNP'
p651
sS'cow'
p652
S'NNP'
p653
sS'ila'
p654
S'NNP'
p655
sS'MOS'
p656
S'NNS'
p657
sS'ilo'
p658
S'NNP'
p659
sS'ill'
p660
S'RB'
p661
sS'ybe'
p662
S'RB'
p663
sS'ilt'
p664
S'VBN'
p665
sS'cob'
p666
S'NNP'
p667
sS'und'
p668
S'NN'
p669
sS'ils'
p670
S'NNS'
p671
sS'ung'
p672
S'JJ'
p673
sS'unk'
p674
S'NN'
p675
sS'com'
p676
S'NNP'
p677
sS'unn'
p678
S'NNP'
p679
sS'ily'
p680
S'RB'
p681
sS'ETS'
p682
S'NNP'
p683
sS'IOS'
p684
S'NNS'
p685
sS'250'
p686
S'CD'
p687
sS'ana'
p688
S'NNP'
p689
sS'che'
p690
S'NNP'
p691
sS'hay'
p692
S'NNP'
p693
sS'fry'
p694
S'JJ'
p695
sS'mez'
p696
S'NNP'
p697
sS'mco'
p698
S'NNP'
p699
sS'167'
p700
S'CD'
p701
sS'gns'
p702
S'NNS'
p703
sS'sly'
p704
S'RB'
p705
sS'ait'
p706
S'NN'
p707
sS'air'
p708
S'JJ'
p709
sS'aim'
p710
S'NN'
p711
sS'ail'
p712
S'JJ'
p713
sS'ain'
p714
S'VB'
p715
sS'aii'
p716
S'NNP'
p717
sS'gne'
p718
S'NNP'
p719
sS'aid'
p720
S'JJ'
p721
sS'aig'
p722
S'NNP'
p723
sS'aia'
p724
S'NNP'
p725
sS'aic'
p726
S'NNP'
p727
sS'072'
p728
S'CD'
p729
sS'070'
p730
S'CD'
p731
sS'tzy'
p732
S'JJ'
p733
sS'dhi'
p734
S'NNP'
p735
sS'80s'
p736
S'CD'
p737
sS'nik'
p738
S'NNP'
p739
sS'nin'
p740
S'NNP'
p741
sS'nio'
p742
S'NNP'
p743
sS'vvy'
p744
S'JJ'
p745
sS'kis'
p746
S'NNP'
p747
sS'nic'
p748
S'JJ'
p749
sS'nia'
p750
S'NNP'
p751
sS'nie'
p752
S'NNP'
p753
sS'.38'
p754
S'CD'
p755
sS'.39'
p756
S'CD'
p757
sS'nix'
p758
S'NNP'
p759
sS'kin'
p760
S'NNP'
p761
sS'.30'
p762
S'CD'
p763
sS'nis'
p764
S'NNP'
p765
sS'.32'
p766
S'CD'
p767
sS'.33'
p768
S'CD'
p769
sS'.34'
p770
S'CD'
p771
sS'.35'
p772
S'CD'
p773
sS'.36'
p774
S'CD'
p775
sS'.37'
p776
S'CD'
p777
sS'thy'
p778
S'JJ'
p779
sS'epy'
p780
S'JJ'
p781
sS'ept'
p782
S'VB'
p783
sS'ths'
p784
S'NNS'
p785
sS'eps'
p786
S'NNS'
p787
sS'-so'
p788
S'JJ'
p789
sS'NOR'
p790
S'JJ'
p791
sS'eph'
p792
S'NNP'
p793
sS'the'
p794
S'NNP'
p795
sS'800'
p796
S'CD'
p797
sS'805'
p798
S'CD'
p799
sS'opa'
p800
S'NNP'
p801
sS'yen'
p802
S'NNP'
p803
sS'yee'
p804
S'NN'
p805
sS'yed'
p806
S'VBN'
p807
sS'yes'
p808
S'NNP'
p809
sS'yer'
p810
S'NN'
p811
sS'hai'
p812
S'NNP'
p813
sS'OHN'
p814
S'NNP'
p815
sS'eli'
p816
S'JJ'
p817
sS'hal'
p818
S'JJ'
p819
sS'ham'
p820
S'NNP'
p821
sS'han'
p822
S'NNP'
p823
sS'ela'
p824
S'NNP'
p825
sS'elf'
p826
S'PRP'
p827
sS'IOR'
p828
S'JJ'
p829
sS'eld'
p830
S'NN'
p831
sS'ele'
p832
S'NNP'
p833
sS'ION'
p834
S'NNP'
p835
sS'ely'
p836
S'RB'
p837
sS'vik'
p838
S'NNP'
p839
sS'els'
p840
S'NNS'
p841
sS'har'
p842
S'NNP'
p843
sS'hat'
p844
S'RB'
p845
sS'elt'
p846
S'VBD'
p847
sS'haw'
p848
S'NNP'
p849
sS'opt'
p850
S'VB'
p851
sS'rno'
p852
S'NNP'
p853
sS'ops'
p854
S'NNS'
p855
sS'vin'
p856
S'NNP'
p857
sS'rne'
p858
S'NNP'
p859
sS'.44'
p860
S'CD'
p861
sS'ope'
p862
S'NNP'
p863
sS'vil'
p864
S'JJ'
p865
sS'rns'
p866
S'NNS'
p867
sS'mir'
p868
S'NNP'
p869
sS'vis'
p870
S'NNP'
p871
sS'vda'
p872
S'NNP'
p873
sS'ola'
p874
S'NNP'
p875
sS'old'
p876
S'JJ'
p877
sS'ole'
p878
S'JJ'
p879
sS'olk'
p880
S'NNP'
p881
sS'oll'
p882
S'NNP'
p883
sS'olm'
p884
S'NNP'
p885
sS'oln'
p886
S'NNP'
p887
sS'olo'
p888
S'NNP'
p889
sS'ols'
p890
S'NNS'
p891
sS'ees'
p892
S'NNS'
p893
sS'oly'
p894
S'RB'
p895
sS'eer'
p896
S'NN'
p897
sS'umu'
p898
S'NNP'
p899
sS'ici'
p900
S'NNP'
p901
sS'ich'
p902
S'WDT'
p903
sS'ico'
p904
S'NNP'
p905
sS'ump'
p906
S'NNP'
p907
sS'ums'
p908
S'NNS'
p909
sS'ica'
p910
S'NNP'
p911
sS'yko'
p912
S'NNP'
p913
sS'ice'
p914
S'NN'
p915
sS'429'
p916
S'CD'
p917
sS'428'
p918
S'CD'
p919
sS'icy'
p920
S'NN'
p921
sS'Lev'
p922
S'NNP'
p923
sS'ics'
p924
S'NNS'
p925
sS'umn'
p926
S'NN'
p927
sS'umi'
p928
S'NNP'
p929
sS'ict'
p930
S'NN'
p931
sS'ply'
p932
S'RB'
p933
sS'ple'
p934
S'NNS'
p935
sS'hst'
p936
S'NNP'
p937
sS'AVY'
p938
S'JJ'
p939
sS'obe'
p940
S'NNP'
p941
sS'oba'
p942
S'NNP'
p943
sS'obs'
p944
S'NNP'
p945
sS'Fed'
p946
S'NNP'
p947
sS'sob'
p948
S'NNP'
p949
sS'ppe'
p950
S'NNP'
p951
sS'ppi'
p952
S'NNP'
p953
sS'ahn'
p954
S'NNP'
p955
sS'sol'
p956
S'NNP'
p957
sS'ahl'
p958
S'NNP'
p959
sS'son'
p960
S'NNP'
p961
sS'sos'
p962
S'NNS'
p963
sS'sor'
p964
S'NN'
p965
sS'sow'
p966
S'NNP'
p967
sS'sov'
p968
S'NNP'
p969
sS'ppy'
p970
S'JJ'
p971
sS'ahy'
p972
S'NNP'
p973
sS'uno'
p974
S'NNP'
p975
sS'mbs'
p976
S'NNS'
p977
sS'wan'
p978
S'NNP'
p979
sS'art'
p980
S'NN'
p981
sS'git'
p982
S'JJ'
p983
sS'TED'
p984
S'JJ'
p985
sS'wab'
p986
S'NNP'
p987
sS'gie'
p988
S'NNP'
p989
sS'gid'
p990
S'JJ'
p991
sS'gic'
p992
S'JJ'
p993
sS'gia'
p994
S'NNP'
p995
sS'gin'
p996
S'VB'
p997
sS'TER'
p998
S'NNP'
p999
sS'TES'
p1000
S'NNS'
p1001
sS'war'
p1002
S'JJ'
p1003
sS'DES'
p1004
S'NNS'
p1005
sS'S.A'
p1006
S'NNP'
p1007
sS'ADY'
p1008
S'NNP'
p1009
sS'227'
p1010
S'CD'
p1011
sS'226'
p1012
S'CD'
p1013
sS'225'
p1014
S'NNS'
p1015
sS'azi'
p1016
S'NNP'
p1017
sS'aza'
p1018
S'NNP'
p1019
sS'Von'
p1020
S'NNP'
p1021
sS'aze'
p1022
S'NN'
p1023
sS'azy'
p1024
S'JJ'
p1025
sS'3.2'
p1026
S'CD'
p1027
sS'8.6'
p1028
S'CD'
p1029
sS'155'
p1030
S'CD'
p1031
sS'nne'
p1032
S'NNP'
p1033
sS'khs'
p1034
S'NNPS'
p1035
sS'MCA'
p1036
S'JJ'
p1037
sS'nny'
p1038
S'NN'
p1039
sS'tiz'
p1040
S'NNP'
p1041
sS'cos'
p1042
S'NNP'
p1043
sS'tis'
p1044
S'NNP'
p1045
sS'til'
p1046
S'IN'
p1047
sS'tim'
p1048
S'NN'
p1049
sS'tin'
p1050
S'NNP'
p1051
sS'tik'
p1052
S'NNP'
p1053
sS'tie'
p1054
S'NNP'
p1055
sS'tia'
p1056
S'NNP'
p1057
sS'tic'
p1058
S'JJ'
p1059
sS'nn.'
p1060
S'NNP'
p1061
sS'088'
p1062
S'CD'
p1063
sS'ESE'
p1064
S'JJ'
p1065
sS'HOP'
p1066
S'NNP'
p1067
sS'for'
p1068
S'JJ'
p1069
sS'.B.'
p1070
S'NNP'
p1071
sS'lly'
p1072
S'RB'
p1073
sS'rol'
p1074
S'NN'
p1075
sS'rom'
p1076
S'NNP'
p1077
sS'ron'
p1078
S'NNP'
p1079
sS'lls'
p1080
S'NNS'
p1081
sS'oss'
p1082
S'IN'
p1083
sS'ost'
p1084
S'RB'
p1085
sS'rog'
p1086
S'NNP'
p1087
sS'osh'
p1088
S'NNP'
p1089
sS'lli'
p1090
S'NNP'
p1091
sS'llo'
p1092
S'NNP'
p1093
sS'.08'
p1094
S'CD'
p1095
sS'oso'
p1096
S'NNP'
p1097
sS'osa'
p1098
S'NNP'
p1099
sS'.04'
p1100
S'CD'
p1101
sS'.07'
p1102
S'CD'
p1103
sS'.06'
p1104
S'CD'
p1105
sS'ose'
p1106
S'DT'
p1107
sS'lle'
p1108
S'NNP'
p1109
sS'row'
p1110
S'VB'
p1111
sS'ume'
p1112
S'NN'
p1113
sS'ver'
p1114
S'RB'
p1115
sS'ves'
p1116
S'NNS'
p1117
sS'vey'
p1118
S'NN'
p1119
sS'ell'
p1120
S'NNP'
p1121
sS'ved'
p1122
S'VBN'
p1123
sS'ven'
p1124
S'VBN'
p1125
sS'vel'
p1126
S'NN'
p1127
sS'.98'
p1128
S'CD'
p1129
sS'FIC'
p1130
S'NNP'
p1131
sS'os.'
p1132
S'NNP'
p1133
sS'din'
p1134
S'NNP'
p1135
sS'dio'
p1136
S'NN'
p1137
sS'gue'
p1138
S'VBP'
p1139
sS'die'
p1140
S'NNP'
p1141
sS'gun'
p1142
S'VBN'
p1143
sS'dic'
p1144
S'JJ'
p1145
sS'gus'
p1146
S'JJ'
p1147
sS'gut'
p1148
S'NNP'
p1149
sS'dit'
p1150
S'NN'
p1151
sS'dis'
p1152
S'NNP'
p1153
sS'hta'
p1154
S'NNP'
p1155
sS'hth'
p1156
S'JJ'
p1157
sS'hts'
p1158
S'NNS'
p1159
sS'hty'
p1160
S'JJ'
p1161
sS'524'
p1162
S'CD'
p1163
sS'525'
p1164
S'CD'
p1165
sS'yds'
p1166
S'NNP'
p1167
sS'.R.'
p1168
S'NNP'
p1169
sS'boy'
p1170
S'NNP'
p1171
sS'bor'
p1172
S'NN'
p1173
sS'INS'
p1174
S'NNS'
p1175
sS'bok'
p1176
S'NNP'
p1177
sS'bol'
p1178
S'NN'
p1179
sS'bon'
p1180
S'NN'
p1181
sS'boo'
p1182
S'JJ'
p1183
sS'INE'
p1184
S'VB'
p1185
sS'ING'
p1186
S'NNP'
p1187
sS'eks'
p1188
S'NNS'
p1189
sS'DON'
p1190
S'NNP'
p1191
sS'ipe'
p1192
S'NN'
p1193
sS'ips'
p1194
S'NNS'
p1195
sS'uzu'
p1196
S'NNP'
p1197
sS'AKE'
p1198
S'VB'
p1199
sS'msy'
p1200
S'JJ'
p1201
sS'ayt'
p1202
S'NNP'
p1203
sS'ays'
p1204
S'NNS'
p1205
sS'ood'
p1206
S'NNP'
p1207
sS'oof'
p1208
S'NN'
p1209
sS'oob'
p1210
S'NNP'
p1211
sS'oom'
p1212
S'NN'
p1213
sS'ool'
p1214
S'NN'
p1215
sS'oon'
p1216
S'NN'
p1217
sS'ook'
p1218
S'NN'
p1219
sS'oot'
p1220
S'JJ'
p1221
sS'oor'
p1222
S'NN'
p1223
sS'fly'
p1224
S'NN'
p1225
sS'uly'
p1226
S'RB'
p1227
sS'cas'
p1228
S'NNP'
p1229
sS'car'
p1230
S'NN'
p1231
sS'ibb'
p1232
S'NNP'
p1233
sS'cap'
p1234
S'NNP'
p1235
sS'ibe'
p1236
S'VB'
p1237
sS'ult'
p1238
S'NN'
p1239
sS'ulu'
p1240
S'NNP'
p1241
sS'can'
p1242
S'NNP'
p1243
sS'cam'
p1244
S'NNP'
p1245
sS'cal'
p1246
S'JJ'
p1247
sS'1.1'
p1248
S'CD'
p1249
sS'ula'
p1250
S'NN'
p1251
sS'fle'
p1252
S'NN'
p1253
sS'uld'
p1254
S'MD'
p1255
sS'ule'
p1256
S'NN'
p1257
sS'kyo'
p1258
S'NNP'
p1259
sS'ERS'
p1260
S'NNS'
p1261
sS'238'
p1262
S'CD'
p1263
sS'r29'
p1264
S'NNS'
p1265
sS'235'
p1266
S'CD'
p1267
sS'ERN'
p1268
S'NNP'
p1269
sS'r20'
p1270
S'NNS'
p1271
sS'nyx'
p1272
S'NNP'
p1273
sS'470'
p1274
S'CD'
p1275
sS'nyi'
p1276
S'NNP'
p1277
sS'146'
p1278
S'CD'
p1279
sS'mas'
p1280
S'NNP'
p1281
sS'mat'
p1282
S'NN'
p1283
sS'sna'
p1284
S'NNP'
p1285
sS'max'
p1286
S'NNP'
p1287
sS'use'
p1288
S'IN'
p1289
sS'mac'
p1290
S'NNP'
p1291
sS'aos'
p1292
S'NNP'
p1293
sS'mad'
p1294
S'NNP'
p1295
sS'mal'
p1296
S'JJ'
p1297
sS'man'
p1298
S'NN'
p1299
sS'ght'
p1300
S'NN'
p1301
sS'ghs'
p1302
S'NNS'
p1303
sS'6tm'
p1304
S'JJ'
p1305
sS'NCH'
p1306
S'NNP'
p1307
sS'NCE'
p1308
S'NNP'
p1309
sS'098'
p1310
S'CD'
p1311
sS'tty'
p1312
S'RB'
p1313
sS'lse'
p1314
S'JJ'
p1315
sS'lsa'
p1316
S'NNP'
p1317
sS'tts'
p1318
S'NNP'
p1319
sS'092'
p1320
S'CD'
p1321
sS'tti'
p1322
S'NNP'
p1323
sS'aha'
p1324
S'NNP'
p1325
sS'tto'
p1326
S'NNP'
p1327
sS'OND'
p1328
S'NNP'
p1329
sS'tta'
p1330
S'NNP'
p1331
sS'tte'
p1332
S'NNP'
p1333
sS'jiv'
p1334
S'NNP'
p1335
sS'930'
p1336
S'CD'
p1337
sS'937'
p1338
S'CD'
p1339
sS'.12'
p1340
S'CD'
p1341
sS'.13'
p1342
S'CD'
p1343
sS'non'
p1344
S'NNP'
p1345
sS'.11'
p1346
S'CD'
p1347
sS'.16'
p1348
S'CD'
p1349
sS'noi'
p1350
S'NNP'
p1351
sS'.14'
p1352
S'CD'
p1353
sS'ppo'
p1354
S'NNP'
p1355
sS'ros'
p1356
S'NNS'
p1357
sS'aho'
p1358
S'NNP'
p1359
sS'kko'
p1360
S'NNP'
p1361
sS'not'
p1362
S'NNP'
p1363
sS'Kay'
p1364
S'NNP'
p1365
sS'nor'
p1366
S'NN'
p1367
sS'nos'
p1368
S'NNP'
p1369
sS'795'
p1370
S'CD'
p1371
sS'bly'
p1372
S'RB'
p1373
sS'nst'
p1374
S'IN'
p1375
sS'ble'
p1376
S'JJ'
p1377
sS'RTY'
p1378
S'NNP'
p1379
sS'RTZ'
p1380
S'NNP'
p1381
sS'lmy'
p1382
S'JJ'
p1383
sS'rlo'
p1384
S'NNP'
p1385
sS'ory'
p1386
S'NN'
p1387
sS'rle'
p1388
S'NNP'
p1389
sS'rld'
p1390
S'NN'
p1391
sS'ort'
p1392
S'NN'
p1393
sS'lms'
p1394
S'NNS'
p1395
sS'rla'
p1396
S'NNP'
p1397
sS'ors'
p1398
S'NNS'
p1399
sS'orp'
p1400
S'NNP'
p1401
sS'orn'
p1402
S'NNP'
p1403
sS'oro'
p1404
S'NNP'
p1405
sS'orm'
p1406
S'NN'
p1407
sS'rly'
p1408
S'RB'
p1409
sS'ork'
p1410
S'NN'
p1411
sS'ori'
p1412
S'NNP'
p1413
sS'orf'
p1414
S'NNP'
p1415
sS'org'
p1416
S'NNP'
p1417
sS'ord'
p1418
S'NN'
p1419
sS'ore'
p1420
S'IN'
p1421
sS'orb'
p1422
S'VB'
p1423
sS'lme'
p1424
S'NNP'
p1425
sS'rls'
p1426
S'NNP'
p1427
sS'ora'
p1428
S'NNP'
p1429
sS'923'
p1430
S'CD'
p1431
sS'lla'
p1432
S'NNP'
p1433
sS'sho'
p1434
S'NNP'
p1435
sS'onk'
p1436
S'NNP'
p1437
sS'ATE'
p1438
S'JJ'
p1439
sS'zak'
p1440
S'NNP'
p1441
sS'625'
p1442
S'CD'
p1443
sS'zai'
p1444
S'NNP'
p1445
sS'ona'
p1446
S'NNP'
p1447
sS'zac'
p1448
S'NNP'
p1449
sS'ond'
p1450
S'JJ'
p1451
sS'one'
p1452
S'NN'
p1453
sS'ony'
p1454
S'NN'
p1455
sS'ATS'
p1456
S'NNPS'
p1457
sS'ons'
p1458
S'NNS'
p1459
sS'zas'
p1460
S'NNP'
p1461
sS'ont'
p1462
S'NN'
p1463
sS'iam'
p1464
S'NNP'
p1465
sS'ial'
p1466
S'JJ'
p1467
sS'ian'
p1468
S'JJ'
p1469
sS'iah'
p1470
S'NNP'
p1471
sS'iad'
p1472
S'NNP'
p1473
sS'iac'
p1474
S'NNP'
p1475
sS'SED'
p1476
S'VBN'
p1477
sS'uki'
p1478
S'NNP'
p1479
sS'ias'
p1480
S'NNP'
p1481
sS'iar'
p1482
S'JJ'
p1483
sS'hue'
p1484
S'NNP'
p1485
sS'IME'
p1486
S'JJ'
p1487
sS'way'
p1488
S'NN'
p1489
sS'hum'
p1490
S'JJ'
p1491
sS'huo'
p1492
S'NNP'
p1493
sS'IMS'
p1494
S'VBZ'
p1495
sS'hur'
p1496
S'NNP'
p1497
sS'ZED'
p1498
S'JJ'
p1499
sS'and'
p1500
S'NNP'
p1501
sS'ane'
p1502
S'NNP'
p1503
sS'sai'
p1504
S'NNP'
p1505
sS'ang'
p1506
S'NNP'
p1507
sS'pra'
p1508
S'NNP'
p1509
sS'san'
p1510
S'NNP'
p1511
sS'sal'
p1512
S'NN'
p1513
sS'ann'
p1514
S'NNP'
p1515
sS'ano'
p1516
S'NNP'
p1517
sS'anh'
p1518
S'NNP'
p1519
sS'ani'
p1520
S'NNP'
p1521
sS'ank'
p1522
S'NNP'
p1523
sS'ant'
p1524
S'NN'
p1525
sS'ans'
p1526
S'NNS'
p1527
sS'sas'
p1528
S'NNP'
p1529
sS'saw'
p1530
S'NN'
p1531
sS'any'
p1532
S'NN'
p1533
sS'zon'
p1534
S'NNP'
p1535
sS'200'
p1536
S'CD'
p1537
sS'205'
p1538
S'NNS'
p1539
sS'iwa'
p1540
S'NNP'
p1541
sS'ust'
p1542
S'NNP'
p1543
sS'NRI'
p1544
S'NNP'
p1545
sS'fer'
p1546
S'NN'
p1547
sS'tka'
p1548
S'NNP'
p1549
sS'nly'
p1550
S'RB'
p1551
sS'A.T'
p1552
S'NNP'
p1553
sS'ss.'
p1554
S'NNP'
p1555
sS'nlo'
p1556
S'NNP'
p1557
sS'ffy'
p1558
S'JJ'
p1559
sS'B-2'
p1560
S'NN'
p1561
sS'B-3'
p1562
S'NNP'
p1563
sS'B-1'
p1564
S'JJ'
p1565
sS'ENT'
p1566
S'NNP'
p1567
sS'ges'
p1568
S'NNS'
p1569
sS'ger'
p1570
S'NN'
p1571
sS'ssy'
p1572
S'NNP'
p1573
sS'get'
p1574
S'NN'
p1575
sS'ehl'
p1576
S'NNP'
p1577
sS'ssi'
p1578
S'NNP'
p1579
sS'gee'
p1580
S'VBP'
p1581
sS'ged'
p1582
S'VBN'
p1583
sS'sse'
p1584
S'NNP'
p1585
sS'gen'
p1586
S'NNP'
p1587
sS'gel'
p1588
S'NNP'
p1589
sS'6.7'
p1590
S'CD'
p1591
sS'zes'
p1592
S'VBZ'
p1593
sS'920'
p1594
S'CD'
p1595
sS'YER'
p1596
S'NNP'
p1597
sS'.66'
p1598
S'CD'
p1599
sS'.65'
p1600
S'CD'
p1601
sS'.64'
p1602
S'CD'
p1603
sS'.62'
p1604
S'CD'
p1605
sS'.60'
p1606
S'CD'
p1607
sS'.69'
p1608
S'CD'
p1609
sS'uto'
p1610
S'JJ'
p1611
sS'rma'
p1612
S'NNP'
p1613
sS'rmo'
p1614
S'NNP'
p1615
sS'yte'
p1616
S'NNP'
p1617
sS'ked'
p1618
S'VBN'
p1619
sS'tur'
p1620
S'NNP'
p1621
sS'tus'
p1622
S'NN'
p1623
sS'tut'
p1624
S'NNP'
p1625
sS'VGA'
p1626
S'JJ'
p1627
sS'tum'
p1628
S'NN'
p1629
sS'785'
p1630
S'CD'
p1631
sS'fix'
p1632
S'JJ'
p1633
sS'key'
p1634
S'NNP'
p1635
sS'ILL'
p1636
S'NNP'
p1637
sS'PES'
p1638
S'NNS'
p1639
sS'pon'
p1640
S'NN'
p1641
sS'poo'
p1642
S'NNP'
p1643
sS'ILS'
p1644
S'NNS'
p1645
sS'COM'
p1646
S'NNP'
p1647
sS'poc'
p1648
S'NNP'
p1649
sS'988'
p1650
S'CD'
p1651
sS'500'
p1652
S'CD'
p1653
sS'634'
p1654
S'CD'
p1655
sS'yze'
p1656
S'VB'
p1657
sS'eir'
p1658
S'PRP$'
p1659
sS'eit'
p1660
S'VB'
p1661
sS'eig'
p1662
S'NNP'
p1663
sS'eim'
p1664
S'NNP'
p1665
sS'50s'
p1666
S'CD'
p1667
sS'ein'
p1668
S'NNP'
p1669
sS'ive'
p1670
S'JJ'
p1671
sS'DIA'
p1672
S'NNP'
p1673
sS'467'
p1674
S'CD'
p1675
sS'paq'
p1676
S'NNP'
p1677
sS'pay'
p1678
S'VB'
p1679
sS'pac'
p1680
S'NNP'
p1681
sS'pai'
p1682
S'NNP'
p1683
sS'pal'
p1684
S'JJ'
p1685
sS'pan'
p1686
S'NNP'
p1687
sS'oin'
p1688
S'VB'
p1689
sS'oil'
p1690
S'NN'
p1691
sS'958'
p1692
S'CD'
p1693
sS'oid'
p1694
S'VB'
p1695
sS'oit'
p1696
S'VB'
p1697
sS'ois'
p1698
S'NNP'
p1699
sS'IRE'
p1700
S'NNP'
p1701
sS'sed'
p1702
S'VBN'
p1703
sS'cco'
p1704
S'NN'
p1705
sS'cci'
p1706
S'NNP'
p1707
sS'ces'
p1708
S'NNS'
p1709
sS'ick'
p1710
S'NNP'
p1711
sS'217'
p1712
S'CD'
p1713
sS'214'
p1714
S'CD'
p1715
sS'955'
p1716
S'CD'
p1717
sS'BOR'
p1718
S'NNP'
p1719
sS'NAL'
p1720
S'NNP'
p1721
sS'578'
p1722
S'CD'
p1723
sS'nam'
p1724
S'NNP'
p1725
sS'AYS'
p1726
S'VBZ'
p1727
sS'ami'
p1728
S'NNP'
p1729
sS'psi'
p1730
S'NNP'
p1731
sS'amm'
p1732
S'NNP'
p1733
sS'amo'
p1734
S'NNP'
p1735
sS'ama'
p1736
S'NNP'
p1737
sS'ame'
p1738
S'VBD'
p1739
sS'mov'
p1740
S'NNP'
p1741
sS'pse'
p1742
S'NN'
p1743
sS'amy'
p1744
S'JJ'
p1745
sS'mon'
p1746
S'JJ'
p1747
sS'moc'
p1748
S'NNP'
p1749
sS'amp'
p1750
S'NN'
p1751
sS'ams'
p1752
S'NNS'
p1753
sS'.S.'
p1754
S'JJ'
p1755
sS'oad'
p1756
S'JJ'
p1757
sS'zlo'
p1758
S'NNP'
p1759
sS'gju'
p1760
S'NNP'
p1761
sS'rms'
p1762
S'NNS'
p1763
sS'/UA'
p1764
S'NNP'
p1765
sS'.A.'
p1766
S'NNP'
p1767
sS'-mm'
p1768
S'JJ'
p1769
sS'ezi'
p1770
S'NNP'
p1771
sS'tve'
p1772
S'JJ'
p1773
sS'eze'
p1774
S'NN'
p1775
sS'Net'
p1776
S'NNP'
p1777
sS'Med'
p1778
S'NNP'
p1779
sS'uck'
p1780
S'NN'
p1781
sS'uch'
p1782
S'NN'
p1783
sS'.74'
p1784
S'CD'
p1785
sS'.75'
p1786
S'CD'
p1787
sS'.76'
p1788
S'CD'
p1789
sS'.77'
p1790
S'CD'
p1791
sS'.70'
p1792
S'CD'
p1793
sS'.71'
p1794
S'CD'
p1795
sS'.72'
p1796
S'CD'
p1797
sS'.73'
p1798
S'CD'
p1799
sS'.78'
p1800
S'CD'
p1801
sS'846'
p1802
S'CD'
p1803
sS'845'
p1804
S'CD'
p1805
sS'dze'
p1806
S'NNP'
p1807
sS'ace'
p1808
S'NN'
p1809
sS'840'
p1810
S'CD'
p1811
sS'ack'
p1812
S'NN'
p1813
sS'ach'
p1814
S'NNP'
p1815
sS'aco'
p1816
S'NNP'
p1817
sS'act'
p1818
S'NN'
p1819
sS'acy'
p1820
S'NN'
p1821
sS'-88'
p1822
S'CD'
p1823
sS'-87'
p1824
S'CD'
p1825
sS'-84'
p1826
S'CD'
p1827
sS'-85'
p1828
S'CD'
p1829
sS'-83'
p1830
S'CD'
p1831
sS'-80'
p1832
S'CD'
p1833
sS'-81'
p1834
S'CD'
p1835
sS'hev'
p1836
S'NNP'
p1837
sS'hew'
p1838
S'NNP'
p1839
sS'her'
p1840
S'JJ'
p1841
sS'hes'
p1842
S'NNS'
p1843
sS'3th'
p1844
S'JJ'
p1845
sS'hey'
p1846
S'NNP'
p1847
sS'RRA'
p1848
S'NNP'
p1849
sS'ehy'
p1850
S'NNP'
p1851
sS'lor'
p1852
S'NN'
p1853
sS'los'
p1854
S'NNP'
p1855
sS'lop'
p1856
S'VB'
p1857
sS'yan'
p1858
S'NNP'
p1859
sS'low'
p1860
S'IN'
p1861
sS'lot'
p1862
S'NN'
p1863
sS'hel'
p1864
S'NNP'
p1865
sS'hem'
p1866
S'NNP'
p1867
sS'hen'
p1868
S'NNP'
p1869
sS'loy'
p1870
S'NNP'
p1871
sS'UES'
p1872
S'NNPS'
p1873
sS'hek'
p1874
S'NNP'
p1875
sS'753'
p1876
S'CD'
p1877
sS'iCo'
p1878
S'NNP'
p1879
sS'ELL'
p1880
S'NNP'
p1881
sS'rji'
p1882
S'NNP'
p1883
sS'LED'
p1884
S'VBD'
p1885
sS'lo.'
p1886
S'NNP'
p1887
sS'LES'
p1888
S'NNP'
p1889
sS'LEY'
p1890
S'NNP'
p1891
sS'ohm'
p1892
S'NNP'
p1893
sS'ohn'
p1894
S'NNP'
p1895
sS'600'
p1896
S'CD'
p1897
sS'rve'
p1898
S'NNP'
p1899
sS'uin'
p1900
S'NNP'
p1901
sS'uip'
p1902
S'NNP'
p1903
sS'uis'
p1904
S'NNP'
p1905
sS'UST'
p1906
S'NNP'
p1907
sS'uit'
p1908
S'NN'
p1909
sS'4.5'
p1910
S'CD'
p1911
sS'4.4'
p1912
S'CD'
p1913
sS'4.6'
p1914
S'CD'
p1915
sS'4.1'
p1916
S'CD'
p1917
sS'4.3'
p1918
S'CD'
p1919
sS'4.2'
p1920
S'CD'
p1921
sS'4.9'
p1922
S'CD'
p1923
sS'4.8'
p1924
S'CD'
p1925
sS'igy'
p1926
S'NNP'
p1927
sS'ige'
p1928
S'NN'
p1929
sS'iga'
p1930
S'NNP'
p1931
sS'igo'
p1932
S'NNP'
p1933
sS'ign'
p1934
S'JJ'
p1935
sS'yor'
p1936
S'NNP'
p1937
sS'igh'
p1938
S'VB'
p1939
sS'ICK'
p1940
S'NNP'
p1941
sS'-Im'
p1942
S'NNP'
p1943
sS'60s'
p1944
S'CD'
p1945
sS'0th'
p1946
S'NNP'
p1947
sS'ICY'
p1948
S'NNP'
p1949
sS'cur'
p1950
S'VBP'
p1951
sS'486'
p1952
S'NNP'
p1953
sS'485'
p1954
S'CD'
p1955
sS'483'
p1956
S'CD'
p1957
sS'482'
p1958
S'CD'
p1959
sS'481'
p1960
S'CD'
p1961
sS'480'
p1962
S'CD'
p1963
sS'alo'
p1964
S'NNP'
p1965
sS'sco'
p1966
S'NNP'
p1967
sS'sch'
p1968
S'NNP'
p1969
sS'pth'
p1970
S'NN'
p1971
sS'alf'
p1972
S'NN'
p1973
sS'ald'
p1974
S'NNP'
p1975
sS'mns'
p1976
S'NNS'
p1977
sS'pta'
p1978
S'NNP'
p1979
sS'ala'
p1980
S'NNP'
p1981
sS'pty'
p1982
S'JJ'
p1983
sS'aly'
p1984
S'NNP'
p1985
sS'alt'
p1986
S'NN'
p1987
sS'pts'
p1988
S'NNS'
p1989
sS'als'
p1990
S'NNS'
p1991
sS'TAL'
p1992
S'NNP'
p1993
sS'zms'
p1994
S'NNPS'
p1995
sS'pt.'
p1996
S'NNP'
p1997
sS'ium'
p1998
S'NN'
p1999
sS'mpa'
p2000
S'NNP'
p2001
sS'mpo'
p2002
S'NNP'
p2003
sS'fat'
p2004
S'NNP'
p2005
sS'roe'
p2006
S'NNP'
p2007
sS'mpt'
p2008
S'NN'
p2009
sS'fan'
p2010
S'NNP'
p2011
sS'mps'
p2012
S'NNS'
p2013
sS'fac'
p2014
S'NNP'
p2015
sS'ius'
p2016
S'NNP'
p2017
sS'mpy'
p2018
S'JJ'
p2019
sS'roy'
p2020
S'VB'
p2021
sS'sma'
p2022
S'NNP'
p2023
sS'.09'
p2024
S'CD'
p2025
sS'tek'
p2026
S'NNP'
p2027
sS'tel'
p2028
S'NNP'
p2029
sS'tem'
p2030
S'NN'
p2031
sS'ten'
p2032
S'RB'
p2033
sS'teo'
p2034
S'NNP'
p2035
sS'194'
p2036
S'CD'
p2037
sS'tec'
p2038
S'NNP'
p2039
sS'191'
p2040
S'CD'
p2041
sS'190'
p2042
S'CD'
p2043
sS'tex'
p2044
S'NNP'
p2045
sS'rop'
p2046
S'NNP'
p2047
sS'tep'
p2048
S'JJ'
p2049
sS'ter'
p2050
S'NN'
p2051
sS'tes'
p2052
S'NNS'
p2053
sS'ror'
p2054
S'NN'
p2055
sS'Voe'
p2056
S'NNP'
p2057
sS'90s'
p2058
S'CD'
p2059
sS'sue'
p2060
S'NN'
p2061
sS'.P.'
p2062
S'NNP'
p2063
sS'.01'
p2064
S'CD'
p2065
sS'sui'
p2066
S'NNP'
p2067
sS'abs'
p2068
S'NNS'
p2069
sS'sus'
p2070
S'NN'
p2071
sS'.03'
p2072
S'CD'
p2073
sS'xon'
p2074
S'NNP'
p2075
sS'.02'
p2076
S'CD'
p2077
sS'/16'
p2078
S'CD'
p2079
sS'ggs'
p2080
S'NNP'
p2081
sS'ggy'
p2082
S'JJ'
p2083
sS'903'
p2084
S'CD'
p2085
sS'eil'
p2086
S'VB'
p2087
sS'.49'
p2088
S'CD'
p2089
sS'.48'
p2090
S'CD'
p2091
sS'via'
p2092
S'NNP'
p2093
sS'243'
p2094
S'CD'
p2095
sS'vid'
p2096
S'NNP'
p2097
sS'rks'
p2098
S'NNS'
p2099
sS'.41'
p2100
S'CD'
p2101
sS'.40'
p2102
S'CD'
p2103
sS'.43'
p2104
S'CD'
p2105
sS'.42'
p2106
S'CD'
p2107
sS'.45'
p2108
S'CD'
p2109
sS'rky'
p2110
S'JJ'
p2111
sS'.47'
p2112
S'CD'
p2113
sS'.46'
p2114
S'CD'
p2115
sS'rke'
p2116
S'NNP'
p2117
sS'RED'
p2118
S'NNP'
p2119
sS'eyo'
p2120
S'NNP'
p2121
sS'eys'
p2122
S'NNS'
p2123
sS'OUS'
p2124
S'JJ'
p2125
sS'OUT'
p2126
S'IN'
p2127
sS'425'
p2128
S'CD'
p2129
sS'VES'
p2130
S'VBZ'
p2131
sS'VED'
p2132
S'VBD'
p2133
sS'dex'
p2134
S'NN'
p2135
sS'kle'
p2136
S'VB'
p2137
sS'dez'
p2138
S'NNP'
p2139
sS'der'
p2140
S'NN'
p2141
sS'des'
p2142
S'VBZ'
p2143
sS'lks'
p2144
S'NNS'
p2145
sS'del'
p2146
S'NN'
p2147
sS'dem'
p2148
S'NNP'
p2149
sS'den'
p2150
S'NNP'
p2151
sS'ded'
p2152
S'VBD'
p2153
sS'kly'
p2154
S'RB'
p2155
sS'746'
p2156
S'CD'
p2157
sS'CAL'
p2158
S'NNP'
p2159
sS'ist'
p2160
S'NN'
p2161
sS'ryn'
p2162
S'NNP'
p2163
sS'5.2'
p2164
S'CD'
p2165
sS'5.3'
p2166
S'CD'
p2167
sS'5.4'
p2168
S'CD'
p2169
sS'5.5'
p2170
S'CD'
p2171
sS'5.7'
p2172
S'CD'
p2173
sS'5.8'
p2174
S'CD'
p2175
sS'5.9'
p2176
S'CD'
p2177
sS'oys'
p2178
S'NNS'
p2179
sS'oye'
p2180
S'NNP'
p2181
sS'oyd'
p2182
S'NNP'
p2183
sS'rys'
p2184
S'NNPS'
p2185
sS'oya'
p2186
S'NNP'
p2187
sS"E'D"
p2188
S'NNP'
p2189
sS'619'
p2190
S'CD'
p2191
sS'610'
p2192
S'CD'
p2193
sS'-50'
p2194
S'JJ'
p2195
sS'-52'
p2196
S'CD'
p2197
sS'lhi'
p2198
S'NNP'
p2199
sS'ego'
p2200
S'NNP'
p2201
sS'ega'
p2202
S'NNP'
p2203
sS'ege'
p2204
S'NN'
p2205
sS'GHT'
p2206
S'VBP'
p2207
sS'ito'
p2208
S'NNP'
p2209
sS'ith'
p2210
S'NNP'
p2211
sS'iti'
p2212
S'NNP'
p2213
sS'ite'
p2214
S'JJ'
p2215
sS'ffs'
p2216
S'NNS'
p2217
sS'ita'
p2218
S'NNP'
p2219
sS'itz'
p2220
S'NNP'
p2221
sS'ity'
p2222
S'NN'
p2223
sS'495'
p2224
S'CD'
p2225
sS'ffe'
p2226
S'NNP'
p2227
sS'490'
p2228
S'CD'
p2229
sS'its'
p2230
S'NNS'
p2231
sS'493'
p2232
S'CD'
p2233
sS'if.'
p2234
S'NNP'
p2235
sS'wry'
p2236
S'NNP'
p2237
sS'oks'
p2238
S'NNS'
p2239
sS'ced'
p2240
S'VBN'
p2241
sS'cel'
p2242
S'VB'
p2243
sS'gua'
p2244
S'NNP'
p2245
sS'oka'
p2246
S'NNP'
p2247
sS'oke'
p2248
S'VBD'
p2249
sS'cer'
p2250
S'NN'
p2251
sS'cey'
p2252
S'JJ'
p2253
sS'ift'
p2254
S'NN'
p2255
sS'yne'
p2256
S'NNP'
p2257
sS'ify'
p2258
S'VB'
p2259
sS'ogy'
p2260
S'NN'
p2261
sS'ife'
p2262
S'JJ'
p2263
sS'iff'
p2264
S'NN'
p2265
sS'eva'
p2266
S'NNP'
p2267
sS'tre'
p2268
S'NNP'
p2269
sS'phi'
p2270
S'NNP'
p2271
sS'dia'
p2272
S'NNP'
p2273
sS'NGS'
p2274
S'NNP'
p2275
sS'fts'
p2276
S'NNS'
p2277
sS'ize'
p2278
S'VB'
p2279
sS'fty'
p2280
S'JJ'
p2281
sS'izm'
p2282
S'NNP'
p2283
sS'izu'
p2284
S'NNP'
p2285
sS'fth'
p2286
S'NNP'
p2287
sS'ass'
p2288
S'NN'
p2289
sS'asp'
p2290
S'VBP'
p2291
sS'mmy'
p2292
S'NNP'
p2293
sS'ast'
p2294
S'JJS'
p2295
sS'sby'
p2296
S'NNP'
p2297
sS'pua'
p2298
S'NNP'
p2299
sS'toy'
p2300
S'JJ'
p2301
sS'ase'
p2302
S'NN'
p2303
sS'mme'
p2304
S'NNP'
p2305
sS'ash'
p2306
S'NN'
p2307
sS'pur'
p2308
S'NNP'
p2309
sS'wly'
p2310
S'RB'
p2311
sS'wls'
p2312
S'VBZ'
p2313
sS'iz.'
p2314
S'NNP'
p2315
sS'CES'
p2316
S'NNS'
p2317
sS':48'
p2318
S'CD'
p2319
sS':45'
p2320
S'CD'
p2321
sS'uel'
p2322
S'NNP'
p2323
sS'jer'
p2324
S'NNP'
p2325
sS'kok'
p2326
S'NNP'
p2327
sS'972'
p2328
S'CD'
p2329
sS'971'
p2330
S'CD'
p2331
sS'kon'
p2332
S'VBP'
p2333
sS'jek'
p2334
S'NNP'
p2335
sS'kov'
p2336
S'NNP'
p2337
sS'ncy'
p2338
S'NN'
p2339
sS'.58'
p2340
S'CD'
p2341
sS'.59'
p2342
S'CD'
p2343
sS'.56'
p2344
S'CD'
p2345
sS'.57'
p2346
S'CD'
p2347
sS'.54'
p2348
S'CD'
p2349
sS'.55'
p2350
S'CD'
p2351
sS'.52'
p2352
S'CD'
p2353
sS'.53'
p2354
S'CD'
p2355
sS'.50'
p2356
S'CD'
p2357
sS'.51'
p2358
S'CD'
p2359
sS'nch'
p2360
S'NN'
p2361
sS'nco'
p2362
S'NNP'
p2363
sS'nca'
p2364
S'NNP'
p2365
sS'nce'
p2366
S'NN'
p2367
sS'ste'
p2368
S'NN'
p2369
sS'sta'
p2370
S'NNP'
p2371
sS'aal'
p2372
S'NNP'
p2373
sS'Nut'
p2374
S'NNP'
p2375
sS'sto'
p2376
S'NNP'
p2377
sS'865'
p2378
S'CD'
p2379
sS'sts'
p2380
S'NNS'
p2381
sS'KET'
p2382
S'NNP'
p2383
sS'KER'
p2384
S'NNP'
p2385
sS'880'
p2386
S'NN'
p2387
sS'bha'
p2388
S'NNP'
p2389
sS'lid'
p2390
S'JJ'
p2391
sS'lie'
p2392
S'NNP'
p2393
sS'lif'
p2394
S'NNP'
p2395
sS'lia'
p2396
S'NNP'
p2397
sS'lic'
p2398
S'JJ'
p2399
sS'odd'
p2400
S'JJ'
p2401
sS'lin'
p2402
S'NNP'
p2403
sS'lio'
p2404
S'NN'
p2405
sS'lit'
p2406
S'NN'
p2407
sS'RB-'
p2408
S')'
p2409
sS'lip'
p2410
S'NNP'
p2411
sS'lis'
p2412
S'NNP'
p2413
sS'efe'
p2414
S'NNP'
p2415
sS'774'
p2416
S'CD'
p2417
sS'ncs'
p2418
S'NNS'
p2419
sS'nct'
p2420
S'JJ'
p2421
sS'kai'
p2422
S'NNP'
p2423
sS'kar'
p2424
S'NNP'
p2425
sS'o-1'
p2426
S'JJ'
p2427
sS'rho'
p2428
S'NNP'
p2429
sS'rte'
p2430
S'NNP'
p2431
sS'ugh'
p2432
S'IN'
p2433
sS'rta'
p2434
S'NNP'
p2435
sS'667'
p2436
S'CD'
p2437
sS'666'
p2438
S'CD'
p2439
sS'665'
p2440
S'CD'
p2441
sS'664'
p2442
S'CD'
p2443
sS'rth'
p2444
S'NNP'
p2445
sS'uge'
p2446
S'NNP'
p2447
sS'660'
p2448
S'CD'
p2449
sS'rtt'
p2450
S'NNP'
p2451
sS'rts'
p2452
S'NNS'
p2453
sS'ugs'
p2454
S'NNS'
p2455
sS'ojo'
p2456
S'NNP'
p2457
sS'rty'
p2458
S'NN'
p2459
sS'rtz'
p2460
S'NNP'
p2461
sS'-48'
p2462
S'JJ'
p2463
sS'iep'
p2464
S'NNP'
p2465
sS'ies'
p2466
S'NNS'
p2467
sS'ier'
p2468
S'RBR'
p2469
sS'iet'
p2470
S'JJ'
p2471
sS'iew'
p2472
S'NN'
p2473
sS'iel'
p2474
S'NNP'
p2475
sS'ien'
p2476
S'NNP'
p2477
sS'ied'
p2478
S'VBN'
p2479
sS'ief'
p2480
S'JJ'
p2481
sS'hip'
p2482
S'NN'
p2483
sS'IAL'
p2484
S'JJ'
p2485
sS'his'
p2486
S'NNP'
p2487
sS'hit'
p2488
S'JJ'
p2489
sS'hia'
p2490
S'NNP'
p2491
sS'hic'
p2492
S'JJ'
p2493
sS'hie'
p2494
S'NNP'
p2495
sS'him'
p2496
S'NNP'
p2497
sS'hin'
p2498
S'IN'
p2499
sS'cre'
p2500
S'JJ'
p2501
sS'cro'
p2502
S'NNP'
p2503
sS'arp'
p2504
S'JJ'
p2505
sS'arr'
p2506
S'NNP'
p2507
sS'set'
p2508
S'VB'
p2509
sS'ses'
p2510
S'NNS'
p2511
sS'ser'
p2512
S'NN'
p2513
sS'e-B'
p2514
S'JJ'
p2515
sS'ary'
p2516
S'JJ'
p2517
sS'e-O'
p2518
S'JJ'
p2519
sS'sey'
p2520
S'NNP'
p2521
sS'sex'
p2522
S'NNP'
p2523
sS'ara'
p2524
S'NNP'
p2525
sS'2.9'
p2526
S'CD'
p2527
sS'2.8'
p2528
S'CD'
p2529
sS'ard'
p2530
S'NNP'
p2531
sS'are'
p2532
S'NN'
p2533
sS'arf'
p2534
S'VB'
p2535
sS'2.3'
p2536
S'CD'
p2537
sS'ari'
p2538
S'NNP'
p2539
sS'2.1'
p2540
S'CD'
p2541
sS'ark'
p2542
S'NN'
p2543
sS'2.7'
p2544
S'CD'
p2545
sS'arm'
p2546
S'VB'
p2547
sS'2.5'
p2548
S'CD'
p2549
sS'2.4'
p2550
S'CD'
p2551
sS'GES'
p2552
S'NNS'
p2553
sS'GER'
p2554
S'NN'
p2555
sS'TCH'
p2556
S'VB'
p2557
sS'GED'
p2558
S'VBN'
p2559
sS'lem'
p2560
S'NN'
p2561
sS'ika'
p2562
S'FW'
p2563
sS'len'
p2564
S'NNP'
p2565
sS'ike'
p2566
S'IN'
p2567
sS'iko'
p2568
S'NNP'
p2569
sS'AND'
p2570
S'NNP'
p2571
sS'ANE'
p2572
S'NNP'
p2573
sS'sty'
p2574
S'NN'
p2575
sS'e-1'
p2576
S'JJ'
p2577
sS'ANS'
p2578
S'NNS'
p2579
sS'sky'
p2580
S'JJ'
p2581
sS'lbs'
p2582
S'NNS'
p2583
sS'ley'
p2584
S'NNP'
p2585
sS'ady'
p2586
S'RB'
p2587
sS':54'
p2588
S'CD'
p2589
sS':59'
p2590
S'CD'
p2591
sS'due'
p2592
S'JJ'
p2593
sS'xam'
p2594
S'NNP'
p2595
sS'xan'
p2596
S'NNP'
p2597
sS'dus'
p2598
S'NNP'
p2599
sS'NDA'
p2600
S'NNP'
p2601
sS'/30'
p2602
S'NNP'
p2603
sS'/32'
p2604
S'CD'
p2605
sS'gas'
p2606
S'NNP'
p2607
sS'gar'
p2608
S'NNP'
p2609
sS'gap'
p2610
S'JJ'
p2611
sS'gan'
p2612
S'NNP'
p2613
sS'nry'
p2614
S'NNP'
p2615
sS'gal'
p2616
S'JJ'
p2617
sS'cee'
p2618
S'NNP'
p2619
sS'NDS'
p2620
S'NNS'
p2621
sS'fur'
p2622
S'JJ'
p2623
sS'fus'
p2624
S'NNP'
p2625
sS'ful'
p2626
S'JJ'
p2627
sS'mly'
p2628
S'RB'
p2629
sS'eke'
p2630
S'NNP'
p2631
sS'rix'
p2632
S'NNP'
p2633
sS'rit'
p2634
S'NN'
p2635
sS'ris'
p2636
S'NNP'
p2637
sS'rip'
p2638
S'VB'
p2639
sS'eve'
p2640
S'VBP'
p2641
sS'rin'
p2642
S'NNP'
p2643
sS'rio'
p2644
S'NNP'
p2645
sS'ril'
p2646
S'NNP'
p2647
sS'rim'
p2648
S'JJ'
p2649
sS'rik'
p2650
S'NNP'
p2651
sS'vor'
p2652
S'NN'
p2653
sS'RCE'
p2654
S'VBP'
p2655
sS'rid'
p2656
S'NNP'
p2657
sS'rie'
p2658
S'NNP'
p2659
sS'ric'
p2660
S'JJ'
p2661
sS'ria'
p2662
S'NNP'
p2663
sS'ewi'
p2664
S'NNP'
p2665
sS'ewn'
p2666
S'VBN'
p2667
sS'.27'
p2668
S'CD'
p2669
sS'875'
p2670
S'CD'
p2671
sS'ewd'
p2672
S'JJ'
p2673
sS'mos'
p2674
S'NNS'
p2675
sS'ews'
p2676
S'NNS'
p2677
sS'.24'
p2678
S'CD'
p2679
sS'890'
p2680
S'CD'
p2681
sS'891'
p2682
S'CD'
p2683
sS'892'
p2684
S'CD'
p2685
sS'Cor'
p2686
S'NNP'
p2687
sS'dge'
p2688
S'NNP'
p2689
sS'Coy'
p2690
S'NNP'
p2691
sS'sys'
p2692
S'NNP'
p2693
sS'002'
p2694
S'CD'
p2695
sS'000'
p2696
S'CD'
p2697
sS'007'
p2698
S'CD'
p2699
sS'Com'
p2700
S'NNP'
p2701
sS'435'
p2702
S'CD'
p2703
sS'gsu'
p2704
S'NNP'
p2705
sS'gst'
p2706
S'IN'
p2707
sS'vyn'
p2708
S'NNP'
p2709
sS'efs'
p2710
S'NNS'
p2711
sS'760'
p2712
S'CD'
p2713
sS'lds'
p2714
S'NNS'
p2715
sS'CCL'
p2716
S'NNP'
p2717
sS'.05'
p2718
S'CD'
p2719
sS'ldy'
p2720
S'JJ'
p2721
sS'.85'
p2722
S'CD'
p2723
sS'.87'
p2724
S'CD'
p2725
sS'cut'
p2726
S'NNP'
p2727
sS'.81'
p2728
S'CD'
p2729
sS'.80'
p2730
S'CD'
p2731
sS'rgy'
p2732
S'NN'
p2733
sS'.89'
p2734
S'CD'
p2735
sS'.88'
p2736
S'CD'
p2737
sS'cue'
p2738
S'NN'
p2739
sS'rge'
p2740
S'JJ'
p2741
sS'aps'
p2742
S'RB'
p2743
sS'rgh'
p2744
S'NNP'
p2745
sS'rgo'
p2746
S'NNP'
p2747
sS'bin'
p2748
S'NNP'
p2749
sS'bie'
p2750
S'NNP'
p2751
sS'bic'
p2752
S'JJ'
p2753
sS'Air'
p2754
S'NNP'
p2755
sS'bit'
p2756
S'NN'
p2757
sS'bis'
p2758
S'NNPS'
p2759
sS'eet'
p2760
S'NNP'
p2761
sS'-35'
p2762
S'JJ'
p2763
sS'eep'
p2764
S'JJ'
p2765
sS'-31'
p2766
S'JJ'
p2767
sS'-30'
p2768
S'JJ'
p2769
sS'eem'
p2770
S'VB'
p2771
sS'eel'
p2772
S'NN'
p2773
sS'een'
p2774
S'IN'
p2775
sS'eek'
p2776
S'JJ'
p2777
sS'eed'
p2778
S'VBD'
p2779
sS'30s'
p2780
S'CD'
p2781
sS'3.7'
p2782
S'CD'
p2783
sS'3.4'
p2784
S'CD'
p2785
sS'3.5'
p2786
S'CD'
p2787
sS'DEL'
p2788
S'NNP'
p2789
sS'3.3'
p2790
S'CD'
p2791
sS'3.1'
p2792
S'CD'
p2793
sS'AMs'
p2794
S'NNS'
p2795
sS'DED'
p2796
S'VBD'
p2797
sS'3.8'
p2798
S'CD'
p2799
sS'3.9'
p2800
S'CD'
p2801
sS'per'
p2802
S'NN'
p2803
sS'pes'
p2804
S'NNS'
p2805
sS'pel'
p2806
S'NNP'
p2807
sS'pen'
p2808
S'VB'
p2809
sS'pei'
p2810
S'NNP'
p2811
sS'ped'
p2812
S'VBD'
p2813
sS'run'
p2814
S'JJ'
p2815
sS'rum'
p2816
S'NNP'
p2817
sS'300'
p2818
S'CD'
p2819
sS'302'
p2820
S'CD'
p2821
sS'rug'
p2822
S'NN'
p2823
sS'uff'
p2824
S'NN'
p2825
sS'zzi'
p2826
S'NNP'
p2827
sS'rus'
p2828
S'NN'
p2829
sS'zza'
p2830
S'NN'
p2831
sS'oed'
p2832
S'VBD'
p2833
sS'idy'
p2834
S'NNP'
p2835
sS'ids'
p2836
S'NNS'
p2837
sS'yly'
p2838
S'RB'
p2839
sS'yle'
p2840
S'NN'
p2841
sS'idi'
p2842
S'NNP'
p2843
sS'ide'
p2844
S'VB'
p2845
sS'ida'
p2846
S'NNP'
p2847
sS'nsk'
p2848
S'NNP'
p2849
sS'nso'
p2850
S'NNP'
p2851
sS'nsa'
p2852
S'NNP'
p2853
sS'nse'
p2854
S'NN'
p2855
sS'ush'
p2856
S'JJ'
p2857
sS'NER'
p2858
S'NNP'
p2859
sS'NES'
p2860
S'VBZ'
p2861
sS'sad'
p2862
S'NNP'
p2863
sS'chs'
p2864
S'NNP'
p2865
sS'uss'
p2866
S'VB'
p2867
sS'ns.'
p2868
S'NNP'
p2869
sS'wne'
p2870
S'NNP'
p2871
sS'wns'
p2872
S'NNS'
p2873
sS'chy'
p2874
S'JJ'
p2875
sS'MED'
p2876
S'VBN'
p2877
sS'cia'
p2878
S'NNP'
p2879
sS'ute'
p2880
S'NNP'
p2881
sS'uth'
p2882
S'NNP'
p2883
sS'cin'
p2884
S'NNP'
p2885
sS'cil'
p2886
S'NNP'
p2887
sS'cis'
p2888
S'NNP'
p2889
sS'uts'
p2890
S'NNS'
p2891
sS'MES'
p2892
S'NNP'
p2893
sS'MER'
p2894
S'JJ'
p2895
sS'uty'
p2896
S'NN'
p2897
sS'lyn'
p2898
S'NNP'
p2899
sS'nac'
p2900
S'NNP'
p2901
sS'Mat'
p2902
S'NNP'
p2903
sS'950'
p2904
S'CD'
p2905
sS'nah'
p2906
S'NNP'
p2907
sS'nan'
p2908
S'NNP'
p2909
sS'954'
p2910
S'CD'
p2911
sS'nal'
p2912
S'JJ'
p2913
sS'gry'
p2914
S'JJ'
p2915
sS'nar'
p2916
S'NNP'
p2917
sS'nas'
p2918
S'NNP'
p2919
sS'Mac'
p2920
S'NNP'
p2921
sS'ago'
p2922
S'NNP'
p2923
sS'agg'
p2924
S'NNP'
p2925
sS'age'
p2926
S'NN'
p2927
sS'agu'
p2928
S'NNP'
p2929
sS'ags'
p2930
S'NNS'
p2931
sS'eda'
p2932
S'NNP'
p2933
sS'ede'
p2934
S'VBP'
p2935
sS'edo'
p2936
S'NNP'
p2937
sS'010'
p2938
S'CD'
p2939
sS'eds'
p2940
S'NNS'
p2941
sS'012'
p2942
S'CD'
p2943
sS'015'
p2944
S'CD'
p2945
sS'edt'
p2946
S'NNP'
p2947
sS'018'
p2948
S'CD'
p2949
sS'edy'
p2950
S'NN'
p2951
sS'lke'
p2952
S'NNP'
p2953
sS'UAL'
p2954
S'JJ'
p2955
sS'rto'
p2956
S'NNP'
p2957
sS'LAN'
p2958
S'NNP'
p2959
sS'.99'
p2960
S'CD'
p2961
sS'tro'
p2962
S'NNP'
p2963
sS'-in'
p2964
S'NN'
p2965
sS'tra'
p2966
S'NNP'
p2967
sS'.93'
p2968
S'CD'
p2969
sS'.90'
p2970
S'CD'
p2971
sS'.91'
p2972
S'CD'
p2973
sS'.96'
p2974
S'CD'
p2975
sS'.97'
p2976
S'CD'
p2977
sS'.94'
p2978
S'CD'
p2979
sS'.95'
p2980
S'CD'
p2981
sS'try'
p2982
S'NN'
p2983
sS'evy'
p2984
S'NNP'
p2985
sS'591'
p2986
S'CD'
p2987
sS'ody'
p2988
S'NNP'
p2989
sS'CKS'
p2990
S'NNS'
p2991
sS'ued'
p2992
S'VBN'
p2993
sS'ods'
p2994
S'NNS'
p2995
sS'rra'
p2996
S'NNP'
p2997
sS'CB-'
p2998
g2409
sS'rry'
p2999
S'NNP'
p3000
sS'odo'
p3001
S'NNP'
p3002
sS'RES'
p3003
S'NNP'
p3004
sS'ode'
p3005
S'NN'
p3006
sS'ues'
p3007
S'NNS'
p3008
sS'uer'
p3009
S'NNP'
p3010
sS'bda'
p3011
S'NNP'
p3012
sS'TRO'
p3013
S'NNP'
p3014
sS'-26'
p3015
S'CD'
p3016
sS'cit'
p3017
S'NN'
p3018
sS'yce'
p3019
S'NNP'
p3020
sS'led'
p3021
S'VBN'
p3022
sS'oza'
p3023
S'NNP'
p3024
sS'440'
p3025
S'CD'
p3026
sS'lel'
p3027
S'JJ'
p3028
sS'446'
p3029
S'CD'
p3030
sS"O'S"
p3031
S'NNP'
p3032
sS'leo'
p3033
S'NNP'
p3034
sS'ler'
p3035
S'NNP'
p3036
sS'les'
p3037
S'NNS'
p3038
sS'let'
p3039
S'NN'
p3040
sS'lex'
p3041
S'JJ'
p3042
sS'IGN'
p3043
S'JJ'
p3044
sS'lez'
p3045
S'NNP'
p3046
sS'win'
p3047
S'NNP'
p3048
sS'rdt'
p3049
S'NNP'
p3050
sS'rds'
p3051
S'NNS'
p3052
sS'cts'
p3053
S'NNS'
p3054
sS'rdy'
p3055
S'JJ'
p3056
sS'rde'
p3057
S'NNP'
p3058
sS'645'
p3059
S'CD'
p3060
sS'647'
p3061
S'CD'
p3062
sS'rdo'
p3063
S'NNP'
p3064
sS'cto'
p3065
S'JJ'
p3066
sS'rdi'
p3067
S'NNP'
p3068
sS'0.9'
p3069
S'CD'
p3070
sS'wie'
p3071
S'NNP'
p3072
sS'339'
p3073
S'CD'
p3074
sS'334'
p3075
S'CD'
p3076
sS'app'
p3077
S'NNP'
p3078
sS'-47'
p3079
S'NN'
p3080
sS'aph'
p3081
S'NNP'
p3082
sS'wit'
p3083
S'NNP'
p3084
sS'wis'
p3085
S'NNP'
p3086
sS'-44'
p3087
S'JJ'
p3088
sS'voy'
p3089
S'NNP'
p3090
sS'apf'
p3091
S'NNP'
p3092
sS'ape'
p3093
S'NN'
p3094
sS'fed'
p3095
S'VBN'
p3096
sS'fee'
p3097
S'NN'
p3098
sS'zis'
p3099
S'NNPS'
p3100
sS'fen'
p3101
S'NNP'
p3102
sS'chi'
p3103
S'NNP'
p3104
sS'fel'
p3105
S'NNP'
p3106
sS'Min'
p3107
S'NNP'
p3108
sS'cho'
p3109
S'JJ'
p3110
sS'zig'
p3111
S'NNP'
p3112
sS'fet'
p3113
S'VBP'
p3114
sS'zie'
p3115
S'NNP'
p3116
sS'cht'
p3117
S'NNP'
p3118
sS'fes'
p3119
S'NNP'
p3120
sS'zia'
p3121
S'NNP'
p3122
sS'zio'
p3123
S'NNP'
p3124
sS'zil'
p3125
S'NNP'
p3126
sS'usz'
p3127
S'NNP'
p3128
sS'tax'
p3129
S'JJ'
p3130
sS'ALL'
p3131
S'NNP'
p3132
sS'NTS'
p3133
S'NNS'
p3134
sS'ch.'
p3135
S'NNP'
p3136
sS'hua'
p3137
S'NNP'
p3138
sS'NTA'
p3139
S'NNP'
p3140
sS'ALS'
p3141
S'NNS'
p3142
sS'tat'
p3143
S'NNP'
p3144
sS'0.8'
p3145
S'CD'
p3146
sS'tap'
p3147
S'NNP'
p3148
sS'tar'
p3149
S'NNP'
p3150
sS'tas'
p3151
S'NNPS'
p3152
sS'TOR'
p3153
S'NNP'
p3154
sS'0.3'
p3155
S'CD'
p3156
sS'0.2'
p3157
S'CD'
p3158
sS'0.5'
p3159
S'CD'
p3160
sS'0.4'
p3161
S'CD'
p3162
sS'0.7'
p3163
S'CD'
p3164
sS'0.6'
p3165
S'CD'
p3166
sS'tag'
p3167
S'NNP'
p3168
sS'TON'
p3169
S'NNP'
p3170
sS'tal'
p3171
S'NNP'
p3172
sS'tan'
p3173
S'NNP'
p3174
sS'sis'
p3175
S'NN'
p3176
sS'sir'
p3177
S'NNP'
p3178
sS'sit'
p3179
S'NN'
p3180
sS'aff'
p3181
S'NN'
p3182
sS':38'
p3183
S'CD'
p3184
sS'sic'
p3185
S'JJ'
p3186
sS'sia'
p3187
S'NNP'
p3188
sS'sie'
p3189
S'NNP'
p3190
sS'aft'
p3191
S'NN'
p3192
sS'sio'
p3193
S'NNP'
p3194
sS'sin'
p3195
S'NNP'
p3196
sS'sil'
p3197
S'NN'
p3198
sS'ABC'
p3199
S'NNP'
p3200
sS'949'
p3201
S'CD'
p3202
sS'940'
p3203
S'CD'
p3204
sS'owl'
p3205
S'VBP'
p3206
sS'133'
p3207
S'CD'
p3208
sS'own'
p3209
S'VBN'
p3210
sS'136'
p3211
S'CD'
p3212
sS'eum'
p3213
S'NN'
p3214
sS'RAL'
p3215
S'NNP'
p3216
sS'bys'
p3217
S'NNS'
p3218
sS'RAI'
p3219
S'NNP'
p3220
sS'byl'
p3221
S'NNP'
p3222
sS'LBB'
p3223
S'NNP'
p3224
sS'eux'
p3225
S'NNP'
p3226
sS'RAP'
p3227
S'VBP'
p3228
sS'tsy'
p3229
S'JJ'
p3230
sS'kie'
p3231
S'NNP'
p3232
sS'bye'
p3233
S'UH'
p3234
sS'dae'
p3235
S'NNP'
p3236
sS'dal'
p3237
S'NN'
p3238
sS'dam'
p3239
S'NNP'
p3240
sS'dan'
p3241
S'NN'
p3242
sS'Caw'
p3243
S'NNP'
p3244
sS'dak'
p3245
S'NNP'
p3246
sS'dat'
p3247
S'NNP'
p3248
sS'026'
p3249
S'CD'
p3250
sS'daq'
p3251
S'NNP'
p3252
sS'023'
p3253
S'CD'
p3254
sS'das'
p3255
S'NNP'
p3256
sS'ema'
p3257
S'NNP'
p3258
sS'029'
p3259
S'CD'
p3260
sS'day'
p3261
S'NNP'
p3262
sS'San'
p3263
S'NNP'
p3264
sS'ouk'
p3265
S'NNP'
p3266
sS'OCK'
p3267
S'NNP'
p3268
sS'lff'
p3269
S'NNP'
p3270
sS'hly'
p3271
S'RB'
p3272
sS'oul'
p3273
S'NNP'
p3274
sS'lfo'
p3275
S'NNP'
p3276
sS'700'
p3277
S'CD'
p3278
sS'oud'
p3279
S'JJ'
p3280
sS'ous'
p3281
S'JJ'
p3282
sS'our'
p3283
S'JJ'
p3284
sS'oup'
p3285
S'NN'
p3286
sS'out'
p3287
S'IN'
p3288
sS'rez'
p3289
S'NNP'
p3290
sS'CEE'
p3291
S'NNP'
p3292
sS'CED'
p3293
S'NNP'
p3294
sS'rer'
p3295
S'NN'
p3296
sS'res'
p3297
S'NNS'
p3298
sS'-TV'
p3299
S'NNP'
p3300
sS'rew'
p3301
S'VBD'
p3302
sS'ret'
p3303
S'VB'
p3304
sS'rek'
p3305
S'NNP'
p3306
sS'ren'
p3307
S'NNS'
p3308
sS'rel'
p3309
S'NN'
p3310
sS'oni'
p3311
S'NNP'
p3312
sS'rea'
p3313
S'NNP'
p3314
sS'red'
p3315
S'VBN'
p3316
sS'ree'
p3317
S'CD'
p3318
sS'ece'
p3319
S'NN'
p3320
sS'585'
p3321
S'CD'
p3322
sS'580'
p3323
S'CD'
p3324
sS'eco'
p3325
S'NNP'
p3326
sS'eck'
p3327
S'NN'
p3328
sS'70s'
p3329
S'NNS'
p3330
sS'qua'
p3331
S'NNP'
p3332
sS'-10'
p3333
S'JJ'
p3334
sS'ect'
p3335
S'NN'
p3336
sS'que'
p3337
S'JJ'
p3338
sS'bwe'
p3339
S'NNP'
p3340
sS'qui'
p3341
S'NNP'
p3342
sS'-18'
p3343
S'NNP'
p3344
sS'ecy'
p3345
S'NNP'
p3346
sS'lts'
p3347
S'NNS'
p3348
sS'ltz'
p3349
S'NNP'
p3350
sS'lty'
p3351
S'NN'
p3352
sS'lta'
p3353
S'NN'
p3354
sS'lte'
p3355
S'JJ'
p3356
sS'lth'
p3357
S'NN'
p3358
sS'V-1'
p3359
S'NNP'
p3360
sS'rs.'
p3361
S'NNP'
p3362
sS'lon'
p3363
S'NNP'
p3364
sS'455'
p3365
S'JJ'
p3366
sS'ars'
p3367
S'NNS'
p3368
sS'77B'
p3369
S'NNP'
p3370
sS'e-A'
p3371
S'JJ'
p3372
sS'hed'
p3373
S'VBN'
p3374
sS'DGE'
p3375
S'NNP'
p3376
sS'656'
p3377
S'CD'
p3378
sS'9.8'
p3379
S'CD'
p3380
sS'2-3'
p3381
S'JJ'
p3382
sS'rsh'
p3383
S'NNP'
p3384
sS'rsk'
p3385
S'NNP'
p3386
sS'rse'
p3387
S'NN'
p3388
sS'udy'
p3389
S'NN'
p3390
sS'rsa'
p3391
S'RB'
p3392
sS'ogs'
p3393
S'NNS'
p3394
sS'315'
p3395
S'CD'
p3396
sS'ude'
p3397
S'VBP'
p3398
sS'rst'
p3399
S'JJ'
p3400
sS'udi'
p3401
S'NNP'
p3402
sS'oga'
p3403
S'NNP'
p3404
sS'lox'
p3405
S'NNP'
p3406
sS'vie'
p3407
S'NN'
p3408
sS'ben'
p3409
S'NNP'
p3410
sS'bel'
p3411
S'NNP'
p3412
sS'bec'
p3413
S'NNP'
p3414
sS'see'
p3415
S'NN'
p3416
sS'bed'
p3417
S'VBD'
p3418
sS'bee'
p3419
S'NNP'
p3420
sS'bey'
p3421
S'NNP'
p3422
sS"N'S"
p3423
S'NNP'
p3424
sS'ber'
p3425
S'NNP'
p3426
sS'bes'
p3427
S'VBZ'
p3428
sS'ITS'
p3429
S'NNS'
p3430
sS'1.4'
p3431
S'CD'
p3432
sS'1.5'
p3433
S'CD'
p3434
sS'1.6'
p3435
S'CD'
p3436
sS'1.0'
p3437
S'CD'
p3438
sS'sea'
p3439
S'NNP'
p3440
sS'1.2'
p3441
S'CD'
p3442
sS'1.3'
p3443
S'CD'
p3444
sS'1.8'
p3445
S'CD'
p3446
sS'1.9'
p3447
S'CD'
p3448
sS'sen'
p3449
S'NNP'
p3450
sS'sel'
p3451
S'NN'
p3452
sS'min'
p3453
S'NNP'
p3454
sS'mia'
p3455
S'NN'
p3456
sS'arl'
p3457
S'NNP'
p3458
sS'mic'
p3459
S'JJ'
p3460
sS'mie'
p3461
S'NNP'
p3462
sS'293'
p3463
S'CD'
p3464
sS'320'
p3465
S'CD'
p3466
sS'arn'
p3467
S'VB'
p3468
sS'325'
p3469
S'CD'
p3470
sS'mis'
p3471
S'NNP'
p3472
sS'aro'
p3473
S'NNP'
p3474
sS'mit'
p3475
S'VB'
p3476
sS'iry'
p3477
S'NN'
p3478
sS'aws'
p3479
S'VBZ'
p3480
sS'awn'
p3481
S'VBN'
p3482
sS'566'
p3483
S'CD'
p3484
sS'awa'
p3485
S'NNP'
p3486
sS'cke'
p3487
S'NNP'
p3488
sS'ure'
p3489
S'NN'
p3490
sS'urg'
p3491
S'NNP'
p3492
sS'ura'
p3493
S'NNP'
p3494
sS'urb'
p3495
S'VB'
p3496
sS':01'
p3497
S'CD'
p3498
sS'urn'
p3499
S'NN'
p3500
sS'uro'
p3501
S'NNP'
p3502
sS'cki'
p3503
S'NNP'
p3504
sS'uri'
p3505
S'NNP'
p3506
sS':07'
p3507
S'CD'
p3508
sS':06'
p3509
S'CD'
p3510
sS'urt'
p3511
S'NN'
p3512
sS'urp'
p3513
S'VB'
p3514
sS'cks'
p3515
S'NNS'
p3516
sS'urs'
p3517
S'NNS'
p3518
sS'bia'
p3519
S'NNP'
p3520
sS'cky'
p3521
S'JJ'
p3522
sS'ury'
p3523
S'NNP'
p3524
sS'dby'
p3525
S'NN'
p3526
sS'nge'
p3527
S'NN'
p3528
sS'jay'
p3529
S'NNP'
p3530
sS'ngh'
p3531
S'NNP'
p3532
sS'jak'
p3533
S'NNP'
p3534
sS'ngs'
p3535
S'NNS'
p3536
sS'ngy'
p3537
S'JJ'
p3538
sS'sh.'
p3539
S'NNP'
p3540
sS'996'
p3541
S'CD'
p3542
sS'990'
p3543
S'CD'
p3544
sS'120'
p3545
S'CD'
p3546
sS'122'
p3547
S'CD'
p3548
sS'125'
p3549
S'CD'
p3550
sS"L'S"
p3551
S'NNP'
p3552
sS'shy'
p3553
S'JJ'
p3554
sS'NIA'
p3555
S'NNP'
p3556
sS'sha'
p3557
S'NNP'
p3558
sS'shi'
p3559
S'NNP'
p3560
sS'ael'
p3561
S'NNP'
p3562
sS'-on'
p3563
S'JJ'
p3564
sS'bts'
p3565
S'NNS'
p3566
sS'ebt'
p3567
S'JJ'
p3568
sS'032'
p3569
S'CD'
p3570
sS'eby'
p3571
S'NNP'
p3572
sS'035'
p3573
S'CD'
p3574
sS'lup'
p3575
S'NNP'
p3576
sS'lus'
p3577
S'JJ'
p3578
sS'dle'
p3579
S'VB'
p3580
sS'lux'
p3581
S'NN'
p3582
sS'lue'
p3583
S'NN'
p3584
sS'lug'
p3585
S'VB'
p3586
sS'dly'
p3587
S'RB'
p3588
sS'lum'
p3589
S'NNP'
p3590
sS'028'
p3591
S'CD'
p3592
sS'ken'
p3593
S'VBN'
p3594
sS'jor'
p3595
S'JJ'
p3596
sS'jos'
p3597
S'NNP'
p3598
sS'kei'
p3599
S'NNP'
p3600
sS'joy'
p3601
S'VB'
p3602
sS'kee'
p3603
S'NNP'
p3604
sS'EFS'
p3605
S'NNS'
p3606
sS'vre'
p3607
S'NNP'
p3608
sS'ket'
p3609
S'NN'
p3610
sS'kes'
p3611
S'VBZ'
p3612
sS'ker'
p3613
S'NN'
p3614
sS'ets'
p3615
S'NNS'
p3616
sS'ett'
p3617
S'NNP'
p3618
sS'OPS'
p3619
S'NNS'
p3620
sS'tly'
p3621
S'RB'
p3622
sS'ety'
p3623
S'NN'
p3624
sS'OPE'
p3625
S'NNP'
p3626
sS'eta'
p3627
S'NNP'
p3628
sS'tle'
p3629
S'JJ'
p3630
sS'ete'
p3631
S'JJ'
p3632
sS'eth'
p3633
S'NNP'
p3634
sS'rps'
p3635
S'NNP'
p3636
sS'uct'
p3637
S'NN'
p3638
sS'uce'
p3639
S'VB'
p3640
sS'rpe'
p3641
S'NNP'
p3642
sS'UMI'
p3643
S'NNP'
p3644
sS'uid'
p3645
S'JJ'
p3646
sS'8.1'
p3647
S'CD'
p3648
sS'8.0'
p3649
S'CD'
p3650
sS'8.3'
p3651
S'CD'
p3652
sS'8.5'
p3653
S'CD'
p3654
sS'8.4'
p3655
S'CD'
p3656
sS'8.7'
p3657
S'CD'
p3658
sS'OLG'
p3659
S'NNP'
p3660
sS'8.9'
p3661
S'CD'
p3662
sS'8.8'
p3663
S'CD'
p3664
sS'yar'
p3665
S'NNP'
p3666
sS'yal'
p3667
S'JJ'
p3668
sS'732'
p3669
S'CD'
p3670
sS'bby'
p3671
S'NN'
p3672
sS'rce'
p3673
S'NN'
p3674
sS'bbs'
p3675
S'NNS'
p3676
sS'oth'
p3677
S'NN'
p3678
sS'oti'
p3679
S'NNP'
p3680
sS'oto'
p3681
S'NNP'
p3682
sS'ota'
p3683
S'NNP'
p3684
sS'IES'
p3685
S'NNS'
p3686
sS'ote'
p3687
S'VBD'
p3688
sS'IEW'
p3689
S'NNP'
p3690
sS'lge'
p3691
S'VB'
p3692
sS'oty'
p3693
S'JJ'
p3694
sS'uns'
p3695
S'NNS'
p3696
sS'ots'
p3697
S'NNS'
p3698
sS'ott'
p3699
S'NNP'
p3700
sS'rp.'
p3701
S'NNP'
p3702
sS'tsu'
p3703
S'NNP'
p3704
sS'rby'
p3705
S'JJ'
p3706
sS'hoc'
p3707
S'JJ'
p3708
sS'rbs'
p3709
S'NNS'
p3710
sS'PLE'
p3711
S'NNP'
p3712
sS'OLA'
p3713
S'NNP'
p3714
sS'-SE'
p3715
S'NNP'
p3716
sS'yst'
p3717
S'NN'
p3718
sS'r-1'
p3719
S'JJ'
p3720
sS'avy'
p3721
S'JJ'
p3722
sS'nom'
p3723
S'NNP'
p3724
sS'.10'
p3725
S'CD'
p3726
sS'wky'
p3727
S'JJ'
p3728
sS'ind'
p3729
S'IN'
p3730
sS'avo'
p3731
S'NNP'
p3732
sS'ave'
p3733
S'VB'
p3734
sS'ANK'
p3735
S'NNP'
p3736
sS'of.'
p3737
S'NNP'
p3738
sS'SON'
p3739
S'NNP'
p3740
sS'coe'
p3741
S'NNP'
p3742
sS'une'
p3743
S'JJ'
p3744
sS'0.1'
p3745
S'CD'
p3746
sS'yon'
p3747
S'NNP'
p3748
sS'pha'
p3749
S'NNP'
p3750
sS'iot'
p3751
S'NNP'
p3752
sS'ios'
p3753
S'NNS'
p3754
sS'ior'
p3755
S'JJ'
p3756
sS'ion'
p3757
S'NN'
p3758
sS'-63'
p3759
S'CD'
p3760
sS'phs'
p3761
S'NNS'
p3762
sS'iod'
p3763
S'NN'
p3764
sS'ARS'
p3765
S'NNS'
p3766
sS'off'
p3767
S'NN'
p3768
sS'ARD'
p3769
S'NNP'
p3770
sS'ARE'
p3771
S'VB'
p3772
sS'oft'
p3773
S'NNP'
p3774
sS'350'
p3775
S'CD'
p3776
sS'con'
p3777
S'NNP'
p3778
sS'xed'
p3779
S'VBN'
p3780
sS'dar'
p3781
S'NN'
p3782
sS'tcy'
p3783
S'NN'
p3784
sS'xel'
p3785
S'NNP'
p3786
sS'tco'
p3787
S'NNP'
p3788
sS'tch'
p3789
S'VB'
p3790
sS'xes'
p3791
S'NNS'
p3792
sS'ads'
p3793
S'NNS'
p3794
sS'sks'
p3795
S'NNS'
p3796
sS'wed'
p3797
S'VBN'
p3798
sS'gma'
p3799
S'NN'
p3800
sS':15'
p3801
S'CD'
p3802
sS'oes'
p3803
S'NNS'
p3804
sS':13'
p3805
S'CD'
p3806
sS':10'
p3807
S'CD'
p3808
sS'wel'
p3809
S'NNP'
p3810
sS'wes'
p3811
S'NNP'
p3812
sS'wer'
p3813
S'JJR'
p3814
sS'ade'
p3815
S'NN'
p3816
sS'ska'
p3817
S'NNP'
p3818
sS'ada'
p3819
S'NNP'
p3820
sS'ado'
p3821
S'NNP'
p3822
sS'HRB'
p3823
S'NNP'
p3824
sS'ski'
p3825
S'NNP'
p3826
sS'261'
p3827
S'CD'
p3828
sS'nja'
p3829
S'NNP'
p3830
sS'EET'
p3831
S'NNP'
p3832
sS'980'
p3833
S'CD'
p3834
sS'986'
p3835
S'CD'
p3836
sS'987'
p3837
S'JJ'
p3838
sS'EEL'
p3839
S'NNP'
p3840
sS'117'
p3841
S'CD'
p3842
sS'G-1'
p3843
S'JJ'
p3844
sS'ins'
p3845
S'NNS'
p3846
sS'est'
p3847
S'NN'
p3848
sS'ess'
p3849
S'NN'
p3850
sS'ROM'
p3851
S'NNP'
p3852
sS'LLS'
p3853
S'NNS'
p3854
sS'ubs'
p3855
S'NNS'
p3856
sS'OST'
p3857
S'NNP'
p3858
sS'esy'
p3859
S'NN'
p3860
sS'ese'
p3861
S'DT'
p3862
sS'esa'
p3863
S'NNP'
p3864
sS'255'
p3865
S'CD'
p3866
sS'OSE'
p3867
S'DT'
p3868
sS'esh'
p3869
S'JJ'
p3870
sS'045'
p3871
S'CD'
p3872
sS'a-2'
p3873
S'JJ'
p3874
sS'042'
p3875
S'CD'
p3876
sS'040'
p3877
S'CD'
p3878
sS'ndi'
p3879
S'NNP'
p3880
sS'ndo'
p3881
S'NNP'
p3882
sS'nda'
p3883
S'NNP'
p3884
sS'nde'
p3885
S'NNP'
p3886
sS'ndy'
p3887
S'NNP'
p3888
sS'nds'
p3889
S'NNS'
p3890
sS'ndu'
p3891
S'NNP'
p3892
sS'lfe'
p3893
S'NNP'
p3894
sS'xas'
p3895
S'NNP'
p3896
sS'owe'
p3897
S'NNP'
p3898
sS'owy'
p3899
S'JJ'
p3900
sS'IDE'
p3901
S'NNP'
p3902
sS'ows'
p3903
S'VBZ'
p3904
sS'van'
p3905
S'NNP'
p3906
sS'rcy'
p3907
S'NNP'
p3908
sS'val'
p3909
S'NN'
p3910
sS'aan'
p3911
S'NNP'
p3912
sS'yre'
p3913
S'NNP'
p3914
sS'rch'
p3915
S'NN'
p3916
sS'9.9'
p3917
S'CD'
p3918
sS'rck'
p3919
S'NNP'
p3920
sS'9.4'
p3921
S'CD'
p3922
sS'9.5'
p3923
S'CD'
p3924
sS'9.6'
p3925
S'CD'
p3926
sS'9.7'
p3927
S'CD'
p3928
sS'9.1'
p3929
S'CD'
p3930
sS'9.3'
p3931
S'CD'
p3932
sS'eak'
p3933
S'VB'
p3934
sS'eam'
p3935
S'NN'
p3936
sS'eal'
p3937
S'NN'
p3938
sS'ean'
p3939
S'JJ'
p3940
sS'bus'
p3941
S'NNP'
p3942
sS'563'
p3943
S'CD'
p3944
sS'ead'
p3945
S'RB'
p3946
sS'but'
p3947
S'NN'
p3948
sS'567'
p3949
S'CD'
p3950
sS'bun'
p3951
S'NNP'
p3952
sS'bul'
p3953
S'NNP'
p3954
sS'eap'
p3955
S'JJ'
p3956
sS'eas'
p3957
S'NNS'
p3958
sS'ear'
p3959
S'JJ'
p3960
sS'eau'
p3961
S'NNP'
p3962
sS'eat'
p3963
S'JJ'
p3964
sS'vic'
p3965
S'JJ'
p3966
sS'lvy'
p3967
S'NNP'
p3968
sS'lve'
p3969
S'VB'
p3970
sS'724'
p3971
S'CD'
p3972
sS'inz'
p3973
S'NNP'
p3974
sS'pio'
p3975
S'NNP'
p3976
sS'int'
p3977
S'NN'
p3978
sS'pia'
p3979
S'NNP'
p3980
sS'pic'
p3981
S'NN'
p3982
sS'pid'
p3983
S'JJ'
p3984
sS'CIL'
p3985
S'NNP'
p3986
sS'pix'
p3987
S'NNP'
p3988
sS'ino'
p3989
S'NNP'
p3990
sS'inh'
p3991
S'NNP'
p3992
sS'ini'
p3993
S'NNP'
p3994
sS'ink'
p3995
S'VBP'
p3996
sS'mya'
p3997
S'NNP'
p3998
sS'ine'
p3999
S'NN'
p4000
sS'ing'
p4001
S'VBG'
p4002
sS'ina'
p4003
S'NNP'
p4004
sS'eos'
p4005
S'NNP'
p4006
sS'hld'
p4007
S'JJ'
p4008
sS'oan'
p4009
S'JJ'
p4010
sS'oal'
p4011
S'NNP'
p4012
sS'730'
p4013
S'CD'
p4014
sS'oat'
p4015
S'VB'
p4016
sS'DAY'
p4017
S'JJ'
p4018
sS'ubt'
p4019
S'NN'
p4020
sS'ile'
p4021
S'IN'
p4022
sS'OOR'
p4023
S'NNP'
p4024
sS'ULT'
p4025
S'NNP'
p4026
sS'rey'
p4027
S'NNP'
p4028
sS'uba'
p4029
S'NNP'
p4030
sS'ubb'
p4031
S'NNP'
p4032
sS'm.b'
p4033
S'NNP'
p4034
sS'OOD'
p4035
S'NNP'
p4036
sS'eof'
p4037
S'RB'
p4038
sS'eon'
p4039
S'NNP'
p4040
sS'472'
p4041
S'CD'
p4042
sS'hns'
p4043
S'NNP'
p4044
sS'477'
p4045
S'CD'
p4046
sS'475'
p4047
S'CD'
p4048
ssS'_affix_length'
p4049
I-3
sb.